(dp0
S'i'
p1
(lp2
I0
aI1
aI2
aI3
aI4
aI5
aI6
aI7
aI8
aI9
aI10
aI11
aI12
aI13
aI14
aI15
aI16
aI17
aI18
aI19
aI20
aI21
aI22
aI23
aI24
aI25
aI26
aI27
aI28
aI29
aI30
aI31
aI32
aI33
aI34
aI35
aI36
aI37
aI38
aI39
aI40
aI41
aI42
aI43
aI44
aI45
aI46
aI47
aI48
aI49
aI50
aI51
aI52
aI53
aI54
aI55
aI56
aI57
aI58
aI59
aI60
aI61
aI62
aI63
aI64
aI65
aI66
aI67
aI68
aI69
aI70
aI71
aI72
aI73
aI74
aI75
aI76
aI77
aI78
aI79
aI80
aI81
aI82
aI83
aI84
aI85
aI86
aI87
aI88
aI89
aI90
aI91
aI92
aI93
aI94
aI95
aI96
aI97
aI98
aI99
aI100
aI101
aI102
aI103
aI104
aI105
aI106
aI107
aI108
aI109
aI110
aI111
aI112
aI113
aI114
aI115
aI116
aI117
aI118
aI119
aI120
aI121
aI122
aI123
aI124
aI125
aI126
aI127
aI128
aI129
aI130
aI131
aI132
aI133
aI134
aI135
aI136
aI137
aI138
aI139
aI140
aI141
aI142
aI143
aI144
aI145
aI146
aI147
aI148
aI149
aI150
aI151
aI152
aI153
aI154
aI155
aI156
aI157
aI158
aI159
aI160
aI161
aI162
aI163
aI164
aI165
aI166
aI167
aI168
aI169
aI170
aI171
aI172
aI173
aI174
aI175
aI176
aI177
aI178
aI179
aI180
aI181
aI182
aI183
aI184
aI185
aI186
aI187
aI188
aI189
aI190
aI191
aI192
aI193
aI194
aI195
aI196
aI197
aI198
aI199
aI200
aI201
aI202
aI203
aI204
aI205
aI206
aI207
aI208
aI209
aI210
aI211
aI212
aI213
aI214
aI215
aI216
aI217
aI218
aI219
aI220
aI221
aI222
aI223
aI224
aI225
aI226
aI227
aI228
aI229
aI230
aI231
aI232
aI233
aI234
aI235
aI236
aI237
aI238
aI239
aI240
aI241
aI242
aI243
aI244
aI245
aI246
aI247
aI248
aI249
aI250
aI251
aI252
aI253
aI254
aI255
aI256
aI257
aI258
aI259
aI260
aI261
aI262
aI263
aI264
aI265
aI266
aI267
aI268
aI269
aI270
aI271
aI272
aI273
aI274
aI275
aI276
aI277
aI278
aI279
aI280
aI281
aI282
aI283
aI284
aI285
aI286
aI287
aI288
aI289
aI290
aI291
aI292
aI293
aI294
aI295
aI296
aI297
aI298
aI299
aI300
aI301
aI302
aI303
aI304
aI305
aI306
aI307
aI308
aI309
aI310
aI311
aI312
aI313
aI314
aI315
aI316
aI317
aI318
aI319
aI320
aI321
aI322
aI323
aI324
aI325
aI326
aI327
aI328
aI329
aI330
aI331
aI332
aI333
aI334
aI335
aI336
aI337
aI338
aI339
aI340
aI341
aI342
aI343
aI344
aI345
aI346
aI347
aI348
aI349
aI350
aI351
aI352
aI353
aI354
aI355
aI356
aI357
aI358
aI359
aI360
aI361
aI362
aI363
aI364
aI365
aI366
aI367
aI368
aI369
aI370
aI371
aI372
aI373
aI374
aI375
aI376
aI377
aI378
aI379
aI380
aI381
aI382
aI383
aI384
aI385
aI386
aI387
aI388
aI389
aI390
aI391
aI392
aI393
aI394
aI395
aI396
aI397
aI398
aI399
aI400
aI401
aI402
aI403
aI404
aI405
aI406
aI407
aI408
aI409
aI410
aI411
aI412
aI413
aI414
aI415
aI416
aI417
aI418
aI419
aI420
aI421
aI422
aI423
aI424
aI425
aI426
aI427
aI428
aI429
aI430
aI431
aI432
aI433
aI434
aI435
aI436
aI437
aI438
aI439
aI440
aI441
aI442
aI443
aI444
aI445
aI446
aI447
aI448
aI449
aI450
aI451
aI452
aI453
aI454
aI455
aI456
aI457
aI458
aI459
aI460
aI461
aI462
aI463
aI464
aI465
aI466
aI467
aI468
aI469
aI470
aI471
aI472
aI473
aI474
aI475
aI476
aI477
aI478
aI479
aI480
aI481
aI482
aI483
aI484
aI485
aI486
aI487
aI488
aI489
aI490
aI491
aI492
aI493
aI494
aI495
aI496
aI497
aI498
aI499
aI500
aI501
aI502
aI503
aI504
aI505
aI506
aI507
aI508
aI509
aI510
aI511
aI512
aI513
aI514
aI515
aI516
aI517
aI518
aI519
aI520
aI521
aI522
aI523
aI524
aI525
aI526
aI527
aI528
aI529
aI530
aI531
aI532
aI533
aI534
aI535
aI536
aI537
aI538
aI539
aI540
aI541
aI542
aI543
aI544
aI545
aI546
aI547
aI548
aI549
aI550
aI551
aI552
aI553
aI554
aI555
aI556
aI557
aI558
aI559
aI560
aI561
aI562
aI563
aI564
aI565
aI566
aI567
aI568
aI569
aI570
aI571
aI572
aI573
aI574
aI575
aI576
aI577
aI578
aI579
aI580
aI581
aI582
aI583
aI584
aI585
aI586
aI587
aI588
aI589
aI590
aI591
aI592
aI593
aI594
aI595
aI596
aI597
aI598
aI599
aI600
aI601
aI602
aI603
aI604
aI605
aI606
aI607
aI608
aI609
aI610
aI611
aI612
aI613
aI614
aI615
aI616
aI617
aI618
aI619
aI620
aI621
aI622
aI623
aI624
aI625
aI626
aI627
aI628
aI629
aI630
aI631
aI632
aI633
aI634
aI635
aI636
aI637
aI638
aI639
aI640
aI641
aI642
aI643
aI644
aI645
aI646
aI647
aI648
aI649
aI650
aI651
aI652
aI653
aI654
aI655
aI656
aI657
aI658
aI659
aI660
aI661
aI662
aI663
aI664
aI665
aI666
aI667
aI668
aI669
aI670
aI671
aI672
aI673
aI674
aI675
aI676
aI677
aI678
aI679
aI680
aI681
aI682
aI683
aI684
aI685
aI686
aI687
aI688
aI689
aI690
aI691
aI692
aI693
aI694
aI695
aI696
aI697
aI698
aI699
aI700
aI701
aI702
aI703
aI704
aI705
aI706
aI707
aI708
aI709
aI710
aI711
aI712
aI713
aI714
aI715
aI716
aI717
aI718
aI719
aI720
aI721
aI722
aI723
aI724
aI725
aI726
aI727
aI728
aI729
aI730
aI731
aI732
aI733
aI734
aI735
aI736
aI737
aI738
aI739
aI740
aI741
aI742
aI743
aI744
aI745
aI746
aI747
aI748
aI749
aI750
aI751
aI752
aI753
aI754
aI755
aI756
aI757
aI758
aI759
aI760
aI761
aI762
aI763
aI764
aI765
aI766
aI767
aI768
aI769
aI770
aI771
aI772
aI773
aI774
aI775
aI776
aI777
aI778
aI779
aI780
aI781
aI782
aI783
aI784
aI785
aI786
aI787
aI788
aI789
aI790
aI791
aI792
aI793
aI794
aI795
aI796
aI797
aI798
aI799
aI800
aI801
aI802
aI803
aI804
aI805
aI806
aI807
aI808
aI809
aI810
aI811
aI812
aI813
aI814
aI815
aI816
aI817
aI818
aI819
aI820
aI821
aI822
aI823
aI824
aI825
aI826
aI827
aI828
aI829
aI830
aI831
aI832
aI833
aI834
aI835
aI836
aI837
aI838
aI839
aI840
aI841
aI842
aI843
aI844
aI845
aI846
aI847
aI848
aI849
aI850
aI851
aI852
aI853
aI854
aI855
aI856
aI857
aI858
aI859
aI860
aI861
aI862
aI863
aI864
aI865
aI866
aI867
aI868
aI869
aI870
aI871
aI872
aI873
aI874
aI875
aI876
aI877
aI878
aI879
aI880
aI881
aI882
aI883
aI884
aI885
aI886
aI887
aI888
aI889
aI890
aI891
aI892
aI893
aI894
aI895
aI896
aI897
aI898
aI899
aI900
aI901
aI902
aI903
aI904
aI905
aI906
aI907
aI908
aI909
aI910
aI911
aI912
aI913
aI914
aI915
aI916
aI917
aI918
aI919
aI920
aI921
aI922
aI923
aI924
aI925
aI926
aI927
aI928
aI929
aI930
aI931
aI932
aI933
aI934
aI935
aI936
aI937
aI938
aI939
aI940
aI941
aI942
aI943
aI944
aI945
aI946
aI947
aI948
aI949
aI950
aI951
aI952
aI953
aI954
aI955
aI956
aI957
aI958
aI959
aI960
aI961
aI962
aI963
aI964
aI965
aI966
aI967
aI968
aI969
aI970
aI971
aI972
aI973
aI974
aI975
aI976
aI977
aI978
aI979
aI980
aI981
aI982
aI983
aI984
aI985
aI986
aI987
aI988
aI989
aI990
aI991
aI992
aI993
aI994
aI995
aI996
aI997
aI998
aI999
aI1000
aI1001
aI1002
aI1003
aI1004
aI1005
aI1006
aI1007
aI1008
aI1009
aI1010
aI1011
aI1012
aI1013
aI1014
aI1015
aI1016
aI1017
aI1018
aI1019
aI1020
aI1021
aI1022
aI1023
aI1024
aI1025
aI1026
aI1027
aI1028
aI1029
aI1030
aI1031
aI1032
aI1033
aI1034
aI1035
aI1036
aI1037
aI1038
aI1039
aI1040
aI1041
aI1042
aI1043
aI1044
aI1045
aI1046
aI1047
aI1048
aI1049
aI1050
aI1051
aI1052
aI1053
aI1054
aI1055
aI1056
aI1057
aI1058
aI1059
aI1060
aI1061
aI1062
aI1063
aI1064
aI1065
aI1066
aI1067
aI1068
aI1069
aI1070
aI1071
aI1072
aI1073
aI1074
aI1075
aI1076
aI1077
aI1078
aI1079
aI1080
aI1081
aI1082
aI1083
aI1084
aI1085
aI1086
aI1087
aI1088
aI1089
aI1090
aI1091
aI1092
aI1093
aI1094
aI1095
aI1096
aI1097
aI1098
aI1099
aI1100
aI1101
aI1102
aI1103
aI1104
aI1105
aI1106
aI1107
aI1108
aI1109
aI1110
aI1111
aI1112
aI1113
aI1114
aI1115
aI1116
aI1117
aI1118
aI1119
aI1120
aI1121
aI1122
aI1123
aI1124
aI1125
aI1126
aI1127
aI1128
aI1129
aI1130
aI1131
aI1132
aI1133
aI1134
aI1135
aI1136
aI1137
aI1138
aI1139
aI1140
aI1141
aI1142
aI1143
aI1144
aI1145
aI1146
aI1147
aI1148
aI1149
aI1150
aI1151
aI1152
aI1153
aI1154
aI1155
aI1156
aI1157
aI1158
aI1159
aI1160
aI1161
aI1162
aI1163
aI1164
aI1165
aI1166
aI1167
aI1168
aI1169
aI1170
aI1171
aI1172
aI1173
aI1174
aI1175
aI1176
aI1177
aI1178
aI1179
aI1180
aI1181
aI1182
aI1183
aI1184
aI1185
aI1186
aI1187
aI1188
aI1189
aI1190
aI1191
aI1192
aI1193
aI1194
aI1195
aI1196
aI1197
aI1198
aI1199
aI1200
aI1201
aI1202
aI1203
aI1204
aI1205
aI1206
aI1207
aI1208
aI1209
aI1210
aI1211
aI1212
aI1213
aI1214
aI1215
aI1216
aI1217
aI1218
aI1219
aI1220
aI1221
aI1222
aI1223
aI1224
aI1225
aI1226
aI1227
aI1228
aI1229
aI1230
aI1231
aI1232
aI1233
aI1234
aI1235
aI1236
aI1237
aI1238
aI1239
aI1240
aI1241
aI1242
aI1243
aI1244
aI1245
aI1246
aI1247
aI1248
aI1249
aI1250
aI1251
aI1252
aI1253
aI1254
aI1255
aI1256
aI1257
aI1258
aI1259
aI1260
aI1261
aI1262
aI1263
aI1264
aI1265
aI1266
aI1267
aI1268
aI1269
aI1270
aI1271
aI1272
aI1273
aI1274
aI1275
aI1276
aI1277
aI1278
aI1279
aI1280
aI1281
aI1282
aI1283
aI1284
aI1285
aI1286
aI1287
aI1288
aI1289
aI1290
aI1291
aI1292
aI1293
aI1294
aI1295
aI1296
aI1297
aI1298
aI1299
aI1300
aI1301
aI1302
aI1303
aI1304
aI1305
aI1306
aI1307
aI1308
aI1309
aI1310
aI1311
aI1312
aI1313
aI1314
aI1315
aI1316
aI1317
aI1318
aI1319
aI1320
aI1321
aI1322
aI1323
aI1324
aI1325
aI1326
aI1327
aI1328
aI1329
aI1330
aI1331
aI1332
aI1333
aI1334
aI1335
aI1336
aI1337
aI1338
aI1339
aI1340
aI1341
aI1342
aI1343
aI1344
aI1345
aI1346
aI1347
aI1348
aI1349
aI1350
aI1351
aI1352
aI1353
aI1354
aI1355
aI1356
aI1357
aI1358
aI1359
aI1360
aI1361
aI1362
aI1363
aI1364
aI1365
aI1366
aI1367
aI1368
aI1369
aI1370
aI1371
aI1372
aI1373
aI1374
aI1375
aI1376
aI1377
aI1378
aI1379
aI1380
aI1381
aI1382
aI1383
aI1384
aI1385
aI1386
aI1387
aI1388
aI1389
aI1390
aI1391
aI1392
aI1393
aI1394
aI1395
aI1396
aI1397
aI1398
aI1399
aI1400
aI1401
aI1402
aI1403
aI1404
aI1405
aI1406
aI1407
aI1408
aI1409
aI1410
aI1411
aI1412
aI1413
aI1414
aI1415
aI1416
aI1417
aI1418
aI1419
aI1420
aI1421
aI1422
aI1423
aI1424
aI1425
aI1426
aI1427
aI1428
aI1429
aI1430
aI1431
aI1432
aI1433
aI1434
aI1435
aI1436
aI1437
aI1438
aI1439
aI1440
aI1441
aI1442
aI1443
aI1444
aI1445
aI1446
aI1447
aI1448
aI1449
aI1450
aI1451
aI1452
aI1453
aI1454
aI1455
aI1456
aI1457
aI1458
aI1459
aI1460
aI1461
aI1462
aI1463
aI1464
aI1465
aI1466
aI1467
aI1468
aI1469
aI1470
aI1471
aI1472
aI1473
aI1474
aI1475
aI1476
aI1477
aI1478
aI1479
aI1480
aI1481
aI1482
aI1483
aI1484
aI1485
aI1486
aI1487
aI1488
aI1489
aI1490
aI1491
aI1492
aI1493
aI1494
aI1495
aI1496
aI1497
aI1498
aI1499
aI1500
aI1501
aI1502
aI1503
aI1504
aI1505
aI1506
aI1507
aI1508
aI1509
aI1510
aI1511
aI1512
aI1513
aI1514
aI1515
aI1516
aI1517
aI1518
aI1519
aI1520
aI1521
aI1522
aI1523
aI1524
aI1525
aI1526
aI1527
aI1528
aI1529
aI1530
aI1531
aI1532
aI1533
aI1534
aI1535
aI1536
aI1537
aI1538
aI1539
aI1540
aI1541
aI1542
aI1543
aI1544
aI1545
aI1546
aI1547
aI1548
aI1549
aI1550
aI1551
aI1552
aI1553
aI1554
aI1555
aI1556
aI1557
aI1558
aI1559
aI1560
aI1561
aI1562
aI1563
aI1564
aI1565
aI1566
aI1567
aI1568
aI1569
aI1570
aI1571
aI1572
aI1573
aI1574
aI1575
aI1576
aI1577
aI1578
aI1579
aI1580
aI1581
aI1582
aI1583
aI1584
aI1585
aI1586
aI1587
aI1588
aI1589
aI1590
aI1591
aI1592
aI1593
aI1594
aI1595
aI1596
aI1597
aI1598
aI1599
aI1600
aI1601
aI1602
aI1603
aI1604
aI1605
aI1606
aI1607
aI1608
aI1609
aI1610
aI1611
aI1612
aI1613
aI1614
aI1615
aI1616
aI1617
aI1618
aI1619
aI1620
aI1621
aI1622
aI1623
aI1624
aI1625
aI1626
aI1627
aI1628
aI1629
aI1630
aI1631
aI1632
aI1633
aI1634
aI1635
aI1636
aI1637
aI1638
aI1639
aI1640
aI1641
aI1642
aI1643
aI1644
aI1645
aI1646
aI1647
aI1648
aI1649
aI1650
aI1651
aI1652
aI1653
aI1654
aI1655
aI1656
aI1657
aI1658
aI1659
aI1660
aI1661
aI1662
aI1663
aI1664
aI1665
aI1666
aI1667
aI1668
aI1669
aI1670
aI1671
aI1672
aI1673
aI1674
aI1675
aI1676
aI1677
aI1678
aI1679
aI1680
aI1681
aI1682
aI1683
aI1684
aI1685
aI1686
aI1687
aI1688
aI1689
aI1690
aI1691
aI1692
aI1693
aI1694
aI1695
aI1696
aI1697
aI1698
aI1699
aI1700
aI1701
aI1702
aI1703
aI1704
aI1705
aI1706
aI1707
aI1708
aI1709
aI1710
aI1711
aI1712
aI1713
aI1714
aI1715
aI1716
aI1717
aI1718
aI1719
aI1720
aI1721
aI1722
aI1723
aI1724
aI1725
aI1726
aI1727
aI1728
aI1729
aI1730
aI1731
aI1732
aI1733
aI1734
aI1735
aI1736
aI1737
aI1738
aI1739
aI1740
aI1741
aI1742
aI1743
aI1744
aI1745
aI1746
aI1747
aI1748
aI1749
aI1750
aI1751
aI1752
aI1753
aI1754
aI1755
aI1756
aI1757
aI1758
aI1759
aI1760
aI1761
aI1762
aI1763
aI1764
aI1765
aI1766
aI1767
aI1768
aI1769
aI1770
aI1771
aI1772
aI1773
aI1774
aI1775
aI1776
aI1777
aI1778
aI1779
aI1780
aI1781
aI1782
aI1783
aI1784
aI1785
aI1786
aI1787
aI1788
aI1789
aI1790
aI1791
aI1792
aI1793
aI1794
aI1795
aI1796
aI1797
aI1798
aI1799
aI1800
aI1801
aI1802
aI1803
aI1804
aI1805
aI1806
aI1807
aI1808
aI1809
aI1810
aI1811
aI1812
aI1813
aI1814
aI1815
aI1816
aI1817
aI1818
aI1819
aI1820
aI1821
aI1822
aI1823
aI1824
aI1825
aI1826
aI1827
aI1828
aI1829
aI1830
aI1831
aI1832
aI1833
aI1834
aI1835
aI1836
aI1837
aI1838
aI1839
aI1840
aI1841
aI1842
aI1843
aI1844
aI1845
aI1846
aI1847
aI1848
aI1849
aI1850
aI1851
aI1852
aI1853
aI1854
aI1855
aI1856
aI1857
aI1858
aI1859
aI1860
aI1861
aI1862
aI1863
aI1864
aI1865
aI1866
aI1867
aI1868
aI1869
aI1870
aI1871
aI1872
aI1873
aI1874
aI1875
aI1876
aI1877
aI1878
aI1879
aI1880
aI1881
aI1882
aI1883
aI1884
aI1885
aI1886
aI1887
aI1888
aI1889
aI1890
aI1891
aI1892
aI1893
aI1894
aI1895
aI1896
aI1897
aI1898
aI1899
aI1900
aI1901
aI1902
aI1903
aI1904
aI1905
aI1906
aI1907
aI1908
aI1909
aI1910
aI1911
aI1912
aI1913
aI1914
aI1915
aI1916
aI1917
aI1918
aI1919
aI1920
aI1921
aI1922
aI1923
aI1924
aI1925
aI1926
aI1927
aI1928
aI1929
aI1930
aI1931
aI1932
aI1933
aI1934
aI1935
aI1936
aI1937
aI1938
aI1939
aI1940
aI1941
aI1942
aI1943
aI1944
aI1945
aI1946
aI1947
aI1948
aI1949
aI1950
aI1951
aI1952
aI1953
aI1954
aI1955
aI1956
aI1957
aI1958
aI1959
aI1960
aI1961
aI1962
aI1963
aI1964
aI1965
aI1966
aI1967
aI1968
aI1969
aI1970
aI1971
aI1972
aI1973
aI1974
aI1975
aI1976
aI1977
aI1978
aI1979
aI1980
aI1981
aI1982
aI1983
aI1984
aI1985
aI1986
aI1987
aI1988
aI1989
aI1990
aI1991
aI1992
aI1993
aI1994
aI1995
aI1996
aI1997
aI1998
aI1999
aI2000
aI2001
aI2002
aI2003
aI2004
aI2005
aI2006
aI2007
aI2008
aI2009
aI2010
aI2011
aI2012
aI2013
aI2014
aI2015
aI2016
aI2017
aI2018
aI2019
aI2020
aI2021
aI2022
aI2023
aI2024
aI2025
aI2026
aI2027
aI2028
aI2029
aI2030
aI2031
aI2032
aI2033
aI2034
aI2035
aI2036
aI2037
aI2038
aI2039
aI2040
aI2041
aI2042
aI2043
aI2044
aI2045
aI2046
aI2047
aI2048
aI2049
aI2050
aI2051
aI2052
aI2053
aI2054
aI2055
aI2056
aI2057
aI2058
aI2059
aI2060
aI2061
aI2062
aI2063
aI2064
aI2065
aI2066
aI2067
aI2068
aI2069
aI2070
aI2071
aI2072
aI2073
aI2074
aI2075
aI2076
aI2077
aI2078
aI2079
aI2080
aI2081
aI2082
aI2083
aI2084
aI2085
aI2086
aI2087
aI2088
aI2089
aI2090
aI2091
aI2092
aI2093
aI2094
aI2095
aI2096
aI2097
aI2098
aI2099
aI2100
aI2101
aI2102
aI2103
aI2104
aI2105
aI2106
aI2107
aI2108
aI2109
aI2110
aI2111
aI2112
aI2113
aI2114
aI2115
aI2116
aI2117
aI2118
aI2119
aI2120
aI2121
aI2122
aI2123
aI2124
aI2125
aI2126
aI2127
aI2128
aI2129
aI2130
aI2131
aI2132
aI2133
aI2134
aI2135
aI2136
aI2137
aI2138
aI2139
aI2140
aI2141
aI2142
aI2143
aI2144
aI2145
aI2146
aI2147
aI2148
aI2149
aI2150
aI2151
aI2152
aI2153
aI2154
aI2155
aI2156
aI2157
aI2158
aI2159
aI2160
aI2161
aI2162
aI2163
aI2164
aI2165
aI2166
aI2167
aI2168
aI2169
aI2170
aI2171
aI2172
aI2173
aI2174
aI2175
aI2176
aI2177
aI2178
aI2179
aI2180
aI2181
aI2182
aI2183
aI2184
aI2185
aI2186
aI2187
aI2188
aI2189
aI2190
aI2191
aI2192
aI2193
aI2194
aI2195
aI2196
aI2197
aI2198
aI2199
aI2200
aI2201
aI2202
aI2203
aI2204
aI2205
aI2206
aI2207
aI2208
aI2209
aI2210
aI2211
aI2212
aI2213
aI2214
aI2215
aI2216
aI2217
aI2218
aI2219
aI2220
aI2221
aI2222
aI2223
aI2224
aI2225
aI2226
aI2227
aI2228
aI2229
aI2230
aI2231
aI2232
aI2233
aI2234
aI2235
aI2236
aI2237
aI2238
aI2239
aI2240
aI2241
aI2242
aI2243
aI2244
aI2245
aI2246
aI2247
aI2248
aI2249
aI2250
aI2251
aI2252
aI2253
aI2254
aI2255
aI2256
aI2257
aI2258
aI2259
aI2260
aI2261
aI2262
aI2263
aI2264
aI2265
aI2266
aI2267
aI2268
aI2269
aI2270
aI2271
aI2272
aI2273
aI2274
aI2275
aI2276
aI2277
aI2278
aI2279
aI2280
aI2281
aI2282
aI2283
aI2284
aI2285
aI2286
aI2287
aI2288
aI2289
aI2290
aI2291
aI2292
aI2293
aI2294
aI2295
aI2296
aI2297
aI2298
aI2299
aI2300
aI2301
aI2302
aI2303
aI2304
aI2305
aI2306
aI2307
aI2308
aI2309
aI2310
aI2311
aI2312
aI2313
aI2314
aI2315
aI2316
aI2317
aI2318
aI2319
aI2320
aI2321
aI2322
aI2323
aI2324
aI2325
aI2326
aI2327
aI2328
aI2329
aI2330
aI2331
aI2332
aI2333
aI2334
aI2335
aI2336
aI2337
aI2338
aI2339
aI2340
aI2341
aI2342
aI2343
aI2344
aI2345
aI2346
aI2347
aI2348
aI2349
aI2350
aI2351
aI2352
aI2353
aI2354
aI2355
aI2356
aI2357
aI2358
aI2359
aI2360
aI2361
aI2362
aI2363
aI2364
aI2365
aI2366
aI2367
aI2368
aI2369
aI2370
aI2371
aI2372
aI2373
aI2374
aI2375
aI2376
aI2377
aI2378
aI2379
aI2380
aI2381
aI2382
aI2383
aI2384
aI2385
aI2386
aI2387
aI2388
aI2389
aI2390
aI2391
aI2392
aI2393
aI2394
aI2395
aI2396
aI2397
aI2398
aI2399
aI2400
aI2401
aI2402
aI2403
aI2404
aI2405
aI2406
aI2407
aI2408
aI2409
aI2410
aI2411
aI2412
aI2413
aI2414
aI2415
aI2416
aI2417
aI2418
aI2419
aI2420
aI2421
aI2422
aI2423
aI2424
aI2425
aI2426
aI2427
aI2428
aI2429
aI2430
aI2431
aI2432
aI2433
aI2434
aI2435
aI2436
aI2437
aI2438
aI2439
aI2440
aI2441
aI2442
aI2443
aI2444
aI2445
aI2446
aI2447
aI2448
aI2449
aI2450
aI2451
aI2452
aI2453
aI2454
aI2455
aI2456
aI2457
aI2458
aI2459
aI2460
aI2461
aI2462
aI2463
aI2464
aI2465
aI2466
aI2467
aI2468
aI2469
aI2470
aI2471
aI2472
aI2473
aI2474
aI2475
aI2476
aI2477
aI2478
aI2479
aI2480
aI2481
aI2482
aI2483
aI2484
aI2485
aI2486
aI2487
aI2488
aI2489
aI2490
aI2491
aI2492
aI2493
aI2494
aI2495
aI2496
aI2497
aI2498
aI2499
aI2500
aI2501
aI2502
aI2503
aI2504
aI2505
aI2506
aI2507
aI2508
aI2509
aI2510
aI2511
aI2512
aI2513
aI2514
aI2515
aI2516
aI2517
aI2518
aI2519
aI2520
aI2521
aI2522
aI2523
aI2524
aI2525
aI2526
aI2527
aI2528
aI2529
aI2530
aI2531
aI2532
aI2533
aI2534
aI2535
aI2536
aI2537
aI2538
aI2539
aI2540
aI2541
aI2542
aI2543
aI2544
aI2545
aI2546
aI2547
aI2548
aI2549
aI2550
aI2551
aI2552
aI2553
aI2554
aI2555
aI2556
aI2557
aI2558
aI2559
aI2560
aI2561
aI2562
aI2563
aI2564
aI2565
aI2566
aI2567
aI2568
aI2569
aI2570
aI2571
aI2572
aI2573
aI2574
aI2575
aI2576
aI2577
aI2578
aI2579
aI2580
aI2581
aI2582
aI2583
aI2584
aI2585
aI2586
aI2587
aI2588
aI2589
aI2590
aI2591
aI2592
aI2593
aI2594
aI2595
aI2596
aI2597
aI2598
aI2599
aI2600
aI2601
aI2602
aI2603
aI2604
aI2605
aI2606
aI2607
aI2608
aI2609
aI2610
aI2611
aI2612
aI2613
aI2614
aI2615
aI2616
aI2617
aI2618
aI2619
aI2620
aI2621
aI2622
aI2623
aI2624
aI2625
aI2626
aI2627
aI2628
aI2629
aI2630
aI2631
aI2632
aI2633
aI2634
aI2635
aI2636
aI2637
aI2638
aI2639
aI2640
aI2641
aI2642
aI2643
aI2644
aI2645
aI2646
aI2647
aI2648
aI2649
aI2650
aI2651
aI2652
aI2653
aI2654
aI2655
aI2656
aI2657
aI2658
aI2659
aI2660
aI2661
aI2662
aI2663
aI2664
aI2665
aI2666
aI2667
aI2668
aI2669
aI2670
aI2671
aI2672
aI2673
aI2674
aI2675
aI2676
aI2677
aI2678
aI2679
aI2680
aI2681
aI2682
aI2683
aI2684
aI2685
aI2686
aI2687
aI2688
aI2689
aI2690
aI2691
aI2692
aI2693
aI2694
aI2695
aI2696
aI2697
aI2698
aI2699
aI2700
aI2701
aI2702
aI2703
aI2704
aI2705
aI2706
aI2707
aI2708
aI2709
aI2710
aI2711
aI2712
aI2713
aI2714
aI2715
aI2716
aI2717
aI2718
aI2719
aI2720
aI2721
aI2722
aI2723
aI2724
aI2725
aI2726
aI2727
aI2728
aI2729
aI2730
aI2731
aI2732
aI2733
aI2734
aI2735
aI2736
aI2737
aI2738
aI2739
aI2740
aI2741
aI2742
aI2743
aI2744
aI2745
aI2746
aI2747
aI2748
aI2749
aI2750
aI2751
aI2752
aI2753
aI2754
aI2755
aI2756
aI2757
aI2758
aI2759
aI2760
aI2761
aI2762
aI2763
aI2764
aI2765
aI2766
aI2767
aI2768
aI2769
aI2770
aI2771
aI2772
aI2773
aI2774
aI2775
aI2776
aI2777
aI2778
aI2779
aI2780
aI2781
aI2782
aI2783
aI2784
aI2785
aI2786
aI2787
aI2788
aI2789
aI2790
aI2791
aI2792
aI2793
aI2794
aI2795
aI2796
aI2797
aI2798
aI2799
aI2800
aI2801
aI2802
aI2803
aI2804
aI2805
aI2806
aI2807
aI2808
aI2809
aI2810
aI2811
aI2812
aI2813
aI2814
aI2815
aI2816
aI2817
aI2818
aI2819
aI2820
aI2821
aI2822
aI2823
aI2824
aI2825
aI2826
aI2827
aI2828
aI2829
aI2830
aI2831
aI2832
aI2833
aI2834
aI2835
aI2836
aI2837
aI2838
aI2839
aI2840
aI2841
aI2842
aI2843
aI2844
aI2845
aI2846
aI2847
aI2848
aI2849
aI2850
aI2851
aI2852
aI2853
aI2854
aI2855
aI2856
aI2857
aI2858
aI2859
aI2860
aI2861
aI2862
aI2863
aI2864
aI2865
aI2866
aI2867
aI2868
aI2869
aI2870
aI2871
aI2872
aI2873
aI2874
aI2875
aI2876
aI2877
aI2878
aI2879
aI2880
aI2881
aI2882
aI2883
aI2884
aI2885
aI2886
aI2887
aI2888
aI2889
aI2890
aI2891
aI2892
aI2893
aI2894
aI2895
aI2896
aI2897
aI2898
aI2899
aI2900
aI2901
aI2902
aI2903
aI2904
aI2905
aI2906
aI2907
aI2908
aI2909
aI2910
aI2911
aI2912
aI2913
aI2914
aI2915
aI2916
aI2917
aI2918
aI2919
aI2920
aI2921
aI2922
aI2923
aI2924
aI2925
aI2926
aI2927
aI2928
aI2929
aI2930
aI2931
aI2932
aI2933
aI2934
aI2935
aI2936
aI2937
aI2938
aI2939
aI2940
aI2941
aI2942
aI2943
aI2944
aI2945
aI2946
aI2947
aI2948
aI2949
aI2950
aI2951
aI2952
aI2953
aI2954
aI2955
aI2956
aI2957
aI2958
aI2959
aI2960
aI2961
aI2962
aI2963
aI2964
aI2965
aI2966
aI2967
aI2968
aI2969
aI2970
aI2971
aI2972
aI2973
aI2974
aI2975
aI2976
aI2977
aI2978
aI2979
aI2980
aI2981
aI2982
aI2983
aI2984
aI2985
aI2986
aI2987
aI2988
aI2989
aI2990
aI2991
aI2992
aI2993
aI2994
aI2995
aI2996
aI2997
aI2998
aI2999
aI3000
aI3001
aI3002
aI3003
aI3004
aI3005
aI3006
aI3007
aI3008
aI3009
aI3010
aI3011
aI3012
aI3013
aI3014
aI3015
aI3016
aI3017
aI3018
aI3019
aI3020
aI3021
aI3022
aI3023
aI3024
aI3025
aI3026
aI3027
aI3028
aI3029
aI3030
aI3031
aI3032
aI3033
aI3034
aI3035
aI3036
aI3037
aI3038
aI3039
aI3040
aI3041
aI3042
aI3043
aI3044
aI3045
aI3046
aI3047
aI3048
aI3049
aI3050
aI3051
aI3052
aI3053
aI3054
aI3055
aI3056
aI3057
aI3058
aI3059
aI3060
aI3061
aI3062
aI3063
aI3064
aI3065
aI3066
aI3067
aI3068
aI3069
aI3070
aI3071
aI3072
aI3073
aI3074
aI3075
aI3076
aI3077
aI3078
aI3079
aI3080
aI3081
aI3082
aI3083
aI3084
aI3085
aI3086
aI3087
aI3088
aI3089
aI3090
aI3091
aI3092
aI3093
aI3094
aI3095
aI3096
aI3097
aI3098
aI3099
aI3100
aI3101
aI3102
aI3103
aI3104
aI3105
aI3106
aI3107
aI3108
aI3109
aI3110
aI3111
aI3112
aI3113
aI3114
aI3115
aI3116
aI3117
aI3118
aI3119
aI3120
aI3121
aI3122
aI3123
aI3124
aI3125
aI3126
aI3127
aI3128
aI3129
aI3130
aI3131
aI3132
aI3133
aI3134
aI3135
aI3136
aI3137
aI3138
aI3139
aI3140
aI3141
aI3142
aI3143
aI3144
aI3145
aI3146
aI3147
aI3148
aI3149
aI3150
aI3151
aI3152
aI3153
aI3154
aI3155
aI3156
aI3157
aI3158
aI3159
aI3160
aI3161
aI3162
aI3163
aI3164
aI3165
aI3166
aI3167
aI3168
aI3169
aI3170
aI3171
aI3172
aI3173
aI3174
aI3175
aI3176
aI3177
aI3178
aI3179
aI3180
aI3181
aI3182
aI3183
aI3184
aI3185
aI3186
aI3187
aI3188
aI3189
aI3190
aI3191
aI3192
aI3193
aI3194
aI3195
aI3196
aI3197
aI3198
aI3199
aI3200
aI3201
aI3202
aI3203
aI3204
aI3205
aI3206
aI3207
aI3208
aI3209
aI3210
aI3211
aI3212
aI3213
aI3214
aI3215
aI3216
aI3217
aI3218
aI3219
aI3220
aI3221
aI3222
aI3223
aI3224
aI3225
aI3226
aI3227
aI3228
aI3229
aI3230
aI3231
aI3232
aI3233
aI3234
aI3235
aI3236
aI3237
aI3238
aI3239
aI3240
aI3241
aI3242
aI3243
aI3244
aI3245
aI3246
aI3247
aI3248
aI3249
aI3250
aI3251
aI3252
aI3253
aI3254
aI3255
aI3256
aI3257
aI3258
aI3259
aI3260
aI3261
aI3262
aI3263
aI3264
aI3265
aI3266
aI3267
aI3268
aI3269
aI3270
aI3271
aI3272
aI3273
aI3274
aI3275
aI3276
aI3277
aI3278
aI3279
aI3280
aI3281
aI3282
aI3283
aI3284
aI3285
aI3286
aI3287
aI3288
aI3289
aI3290
aI3291
aI3292
aI3293
aI3294
aI3295
aI3296
aI3297
aI3298
aI3299
aI3300
aI3301
aI3302
aI3303
aI3304
aI3305
aI3306
aI3307
aI3308
aI3309
aI3310
aI3311
aI3312
aI3313
aI3314
aI3315
aI3316
aI3317
aI3318
aI3319
aI3320
aI3321
aI3322
aI3323
aI3324
aI3325
aI3326
aI3327
aI3328
aI3329
aI3330
aI3331
aI3332
aI3333
aI3334
aI3335
aI3336
aI3337
aI3338
aI3339
aI3340
aI3341
aI3342
aI3343
aI3344
aI3345
aI3346
aI3347
aI3348
aI3349
aI3350
aI3351
aI3352
aI3353
aI3354
aI3355
aI3356
aI3357
aI3358
aI3359
aI3360
aI3361
aI3362
aI3363
aI3364
aI3365
aI3366
aI3367
aI3368
aI3369
aI3370
aI3371
aI3372
aI3373
aI3374
aI3375
aI3376
aI3377
aI3378
aI3379
aI3380
aI3381
aI3382
aI3383
aI3384
aI3385
aI3386
aI3387
aI3388
aI3389
aI3390
aI3391
aI3392
aI3393
aI3394
aI3395
aI3396
aI3397
aI3398
aI3399
aI3400
aI3401
aI3402
aI3403
aI3404
aI3405
aI3406
aI3407
aI3408
aI3409
aI3410
aI3411
aI3412
aI3413
aI3414
aI3415
aI3416
aI3417
aI3418
aI3419
aI3420
aI3421
aI3422
aI3423
aI3424
aI3425
aI3426
aI3427
aI3428
aI3429
aI3430
aI3431
aI3432
aI3433
aI3434
aI3435
aI3436
aI3437
aI3438
aI3439
aI3440
aI3441
aI3442
aI3443
aI3444
aI3445
aI3446
aI3447
aI3448
aI3449
aI3450
aI3451
aI3452
aI3453
aI3454
aI3455
aI3456
aI3457
aI3458
aI3459
aI3460
aI3461
aI3462
aI3463
aI3464
aI3465
aI3466
aI3467
aI3468
aI3469
aI3470
aI3471
aI3472
aI3473
aI3474
aI3475
aI3476
aI3477
aI3478
aI3479
aI3480
aI3481
aI3482
aI3483
aI3484
aI3485
aI3486
aI3487
aI3488
aI3489
aI3490
aI3491
aI3492
aI3493
aI3494
aI3495
aI3496
aI3497
aI3498
aI3499
aI3500
aI3501
aI3502
aI3503
aI3504
aI3505
aI3506
aI3507
aI3508
aI3509
aI3510
aI3511
aI3512
aI3513
aI3514
aI3515
aI3516
aI3517
aI3518
aI3519
aI3520
aI3521
aI3522
aI3523
aI3524
aI3525
aI3526
aI3527
aI3528
aI3529
aI3530
aI3531
aI3532
aI3533
aI3534
aI3535
aI3536
aI3537
aI3538
aI3539
aI3540
aI3541
aI3542
aI3543
aI3544
aI3545
aI3546
aI3547
aI3548
aI3549
aI3550
aI3551
aI3552
aI3553
aI3554
aI3555
aI3556
aI3557
aI3558
aI3559
aI3560
aI3561
aI3562
aI3563
aI3564
aI3565
aI3566
aI3567
aI3568
aI3569
aI3570
aI3571
aI3572
aI3573
aI3574
aI3575
aI3576
aI3577
aI3578
aI3579
aI3580
aI3581
aI3582
aI3583
aI3584
aI3585
aI3586
aI3587
aI3588
aI3589
aI3590
aI3591
aI3592
aI3593
aI3594
aI3595
aI3596
aI3597
aI3598
aI3599
aI3600
aI3601
aI3602
aI3603
aI3604
aI3605
aI3606
aI3607
aI3608
aI3609
aI3610
aI3611
aI3612
aI3613
aI3614
aI3615
aI3616
aI3617
aI3618
aI3619
aI3620
aI3621
aI3622
aI3623
aI3624
aI3625
aI3626
aI3627
aI3628
aI3629
aI3630
aI3631
aI3632
aI3633
aI3634
aI3635
aI3636
aI3637
aI3638
aI3639
aI3640
aI3641
aI3642
aI3643
aI3644
aI3645
aI3646
aI3647
aI3648
aI3649
aI3650
aI3651
aI3652
aI3653
aI3654
aI3655
aI3656
aI3657
aI3658
aI3659
aI3660
aI3661
aI3662
aI3663
aI3664
aI3665
aI3666
aI3667
aI3668
aI3669
aI3670
aI3671
aI3672
aI3673
aI3674
aI3675
aI3676
aI3677
aI3678
aI3679
aI3680
aI3681
aI3682
aI3683
aI3684
aI3685
aI3686
aI3687
aI3688
aI3689
aI3690
aI3691
aI3692
aI3693
aI3694
aI3695
aI3696
aI3697
aI3698
aI3699
aI3700
aI3701
aI3702
aI3703
aI3704
aI3705
aI3706
aI3707
aI3708
aI3709
aI3710
aI3711
aI3712
aI3713
aI3714
aI3715
aI3716
aI3717
aI3718
aI3719
aI3720
aI3721
aI3722
aI3723
aI3724
aI3725
aI3726
aI3727
aI3728
aI3729
aI3730
aI3731
aI3732
aI3733
aI3734
aI3735
aI3736
aI3737
aI3738
aI3739
aI3740
aI3741
aI3742
aI3743
aI3744
aI3745
aI3746
aI3747
aI3748
aI3749
aI3750
aI3751
aI3752
aI3753
aI3754
aI3755
aI3756
aI3757
aI3758
aI3759
aI3760
aI3761
aI3762
aI3763
aI3764
aI3765
aI3766
aI3767
aI3768
aI3769
aI3770
aI3771
aI3772
aI3773
aI3774
aI3775
aI3776
aI3777
aI3778
aI3779
aI3780
aI3781
aI3782
aI3783
aI3784
aI3785
aI3786
aI3787
aI3788
aI3789
aI3790
aI3791
aI3792
aI3793
aI3794
aI3795
aI3796
aI3797
aI3798
aI3799
aI3800
aI3801
aI3802
aI3803
aI3804
aI3805
aI3806
aI3807
aI3808
aI3809
aI3810
aI3811
aI3812
aI3813
aI3814
aI3815
aI3816
aI3817
aI3818
aI3819
aI3820
aI3821
aI3822
aI3823
aI3824
aI3825
aI3826
aI3827
aI3828
aI3829
aI3830
aI3831
aI3832
aI3833
aI3834
aI3835
aI3836
aI3837
aI3838
aI3839
aI3840
aI3841
aI3842
aI3843
aI3844
aI3845
aI3846
aI3847
aI3848
aI3849
aI3850
aI3851
aI3852
aI3853
aI3854
aI3855
aI3856
aI3857
aI3858
aI3859
aI3860
aI3861
aI3862
aI3863
aI3864
aI3865
aI3866
aI3867
aI3868
aI3869
aI3870
aI3871
aI3872
aI3873
aI3874
aI3875
aI3876
aI3877
aI3878
aI3879
aI3880
aI3881
aI3882
aI3883
aI3884
aI3885
aI3886
aI3887
aI3888
aI3889
aI3890
aI3891
aI3892
aI3893
aI3894
aI3895
aI3896
aI3897
aI3898
aI3899
aI3900
aI3901
aI3902
aI3903
aI3904
aI3905
aI3906
aI3907
aI3908
aI3909
aI3910
aI3911
aI3912
aI3913
aI3914
aI3915
aI3916
aI3917
aI3918
aI3919
aI3920
aI3921
aI3922
aI3923
aI3924
aI3925
aI3926
aI3927
aI3928
aI3929
aI3930
aI3931
aI3932
aI3933
aI3934
aI3935
aI3936
aI3937
aI3938
aI3939
aI3940
aI3941
aI3942
aI3943
aI3944
aI3945
aI3946
aI3947
aI3948
aI3949
aI3950
aI3951
aI3952
aI3953
aI3954
aI3955
aI3956
aI3957
aI3958
aI3959
aI3960
aI3961
aI3962
aI3963
aI3964
aI3965
aI3966
aI3967
aI3968
aI3969
aI3970
aI3971
aI3972
aI3973
aI3974
aI3975
aI3976
aI3977
aI3978
aI3979
aI3980
aI3981
aI3982
aI3983
aI3984
aI3985
aI3986
aI3987
aI3988
aI3989
aI3990
aI3991
aI3992
aI3993
aI3994
aI3995
aI3996
aI3997
aI3998
aI3999
aI4000
aI4001
aI4002
aI4003
aI4004
aI4005
aI4006
aI4007
aI4008
aI4009
aI4010
aI4011
aI4012
aI4013
aI4014
aI4015
aI4016
aI4017
aI4018
aI4019
aI4020
aI4021
aI4022
aI4023
aI4024
aI4025
aI4026
aI4027
aI4028
aI4029
aI4030
aI4031
aI4032
aI4033
aI4034
aI4035
aI4036
aI4037
aI4038
aI4039
aI4040
aI4041
aI4042
aI4043
aI4044
aI4045
aI4046
aI4047
aI4048
aI4049
aI4050
aI4051
aI4052
aI4053
aI4054
aI4055
aI4056
aI4057
aI4058
aI4059
aI4060
aI4061
aI4062
aI4063
aI4064
aI4065
aI4066
aI4067
aI4068
aI4069
aI4070
aI4071
aI4072
aI4073
aI4074
aI4075
aI4076
aI4077
aI4078
aI4079
aI4080
aI4081
aI4082
aI4083
aI4084
aI4085
aI4086
aI4087
aI4088
aI4089
aI4090
aI4091
aI4092
aI4093
aI4094
aI4095
aI4096
aI4097
aI4098
aI4099
aI4100
aI4101
aI4102
aI4103
aI4104
aI4105
aI4106
aI4107
aI4108
aI4109
aI4110
aI4111
aI4112
aI4113
aI4114
aI4115
aI4116
aI4117
aI4118
aI4119
aI4120
aI4121
aI4122
aI4123
aI4124
aI4125
aI4126
aI4127
aI4128
aI4129
aI4130
aI4131
aI4132
aI4133
aI4134
aI4135
aI4136
aI4137
aI4138
aI4139
aI4140
aI4141
aI4142
aI4143
aI4144
aI4145
aI4146
aI4147
aI4148
aI4149
aI4150
aI4151
aI4152
aI4153
aI4154
aI4155
aI4156
aI4157
aI4158
aI4159
aI4160
aI4161
aI4162
aI4163
aI4164
aI4165
aI4166
aI4167
aI4168
aI4169
aI4170
aI4171
aI4172
aI4173
aI4174
aI4175
aI4176
aI4177
aI4178
aI4179
aI4180
aI4181
aI4182
aI4183
aI4184
aI4185
aI4186
aI4187
aI4188
aI4189
aI4190
aI4191
aI4192
aI4193
aI4194
aI4195
aI4196
aI4197
aI4198
aI4199
aI4200
aI4201
aI4202
aI4203
aI4204
aI4205
aI4206
aI4207
aI4208
aI4209
aI4210
aI4211
aI4212
aI4213
aI4214
aI4215
aI4216
aI4217
aI4218
aI4219
aI4220
aI4221
aI4222
aI4223
aI4224
aI4225
aI4226
aI4227
aI4228
aI4229
aI4230
aI4231
aI4232
aI4233
aI4234
aI4235
aI4236
aI4237
aI4238
aI4239
aI4240
aI4241
aI4242
aI4243
aI4244
aI4245
aI4246
aI4247
aI4248
aI4249
aI4250
aI4251
aI4252
aI4253
aI4254
aI4255
aI4256
aI4257
aI4258
aI4259
aI4260
aI4261
aI4262
aI4263
aI4264
aI4265
aI4266
aI4267
aI4268
aI4269
aI4270
aI4271
aI4272
aI4273
aI4274
aI4275
aI4276
aI4277
aI4278
aI4279
aI4280
aI4281
aI4282
aI4283
aI4284
aI4285
aI4286
aI4287
aI4288
aI4289
aI4290
aI4291
aI4292
aI4293
aI4294
aI4295
aI4296
aI4297
aI4298
aI4299
aI4300
aI4301
aI4302
aI4303
aI4304
aI4305
aI4306
aI4307
aI4308
aI4309
aI4310
aI4311
aI4312
aI4313
aI4314
aI4315
aI4316
aI4317
aI4318
aI4319
aI4320
aI4321
aI4322
aI4323
aI4324
aI4325
aI4326
aI4327
aI4328
aI4329
aI4330
aI4331
aI4332
aI4333
aI4334
aI4335
aI4336
aI4337
aI4338
aI4339
aI4340
aI4341
aI4342
aI4343
aI4344
aI4345
aI4346
aI4347
aI4348
aI4349
aI4350
aI4351
aI4352
aI4353
aI4354
aI4355
aI4356
aI4357
aI4358
aI4359
aI4360
aI4361
aI4362
aI4363
aI4364
aI4365
aI4366
aI4367
aI4368
aI4369
aI4370
aI4371
aI4372
aI4373
aI4374
aI4375
aI4376
aI4377
aI4378
aI4379
aI4380
aI4381
aI4382
aI4383
aI4384
aI4385
aI4386
aI4387
aI4388
aI4389
aI4390
aI4391
aI4392
aI4393
aI4394
aI4395
aI4396
aI4397
aI4398
aI4399
aI4400
aI4401
aI4402
aI4403
aI4404
aI4405
aI4406
aI4407
aI4408
aI4409
aI4410
aI4411
aI4412
aI4413
aI4414
aI4415
aI4416
aI4417
aI4418
aI4419
aI4420
aI4421
aI4422
aI4423
aI4424
aI4425
aI4426
aI4427
aI4428
aI4429
aI4430
aI4431
aI4432
aI4433
aI4434
aI4435
aI4436
aI4437
aI4438
aI4439
aI4440
aI4441
aI4442
aI4443
aI4444
aI4445
aI4446
aI4447
aI4448
aI4449
aI4450
aI4451
aI4452
aI4453
aI4454
aI4455
aI4456
aI4457
aI4458
aI4459
aI4460
aI4461
aI4462
aI4463
aI4464
aI4465
aI4466
aI4467
aI4468
aI4469
aI4470
aI4471
aI4472
aI4473
aI4474
aI4475
aI4476
aI4477
aI4478
aI4479
aI4480
aI4481
aI4482
aI4483
aI4484
aI4485
aI4486
aI4487
aI4488
aI4489
aI4490
aI4491
aI4492
aI4493
aI4494
aI4495
aI4496
aI4497
aI4498
aI4499
aI4500
aI4501
aI4502
aI4503
aI4504
aI4505
aI4506
aI4507
aI4508
aI4509
aI4510
aI4511
aI4512
aI4513
aI4514
aI4515
aI4516
aI4517
aI4518
aI4519
aI4520
aI4521
aI4522
aI4523
aI4524
aI4525
aI4526
aI4527
aI4528
aI4529
aI4530
aI4531
aI4532
aI4533
aI4534
aI4535
aI4536
aI4537
aI4538
aI4539
aI4540
aI4541
aI4542
aI4543
aI4544
aI4545
aI4546
aI4547
aI4548
aI4549
aI4550
aI4551
aI4552
aI4553
aI4554
aI4555
aI4556
aI4557
aI4558
aI4559
aI4560
aI4561
aI4562
aI4563
aI4564
aI4565
aI4566
aI4567
aI4568
aI4569
aI4570
aI4571
aI4572
aI4573
aI4574
aI4575
aI4576
aI4577
aI4578
aI4579
aI4580
aI4581
aI4582
aI4583
aI4584
aI4585
aI4586
aI4587
aI4588
aI4589
aI4590
aI4591
aI4592
aI4593
aI4594
aI4595
aI4596
aI4597
aI4598
aI4599
aI4600
aI4601
aI4602
aI4603
aI4604
aI4605
aI4606
aI4607
aI4608
aI4609
aI4610
aI4611
aI4612
aI4613
aI4614
aI4615
aI4616
aI4617
aI4618
aI4619
aI4620
aI4621
aI4622
aI4623
aI4624
aI4625
aI4626
aI4627
aI4628
aI4629
aI4630
aI4631
aI4632
aI4633
aI4634
aI4635
aI4636
aI4637
aI4638
aI4639
aI4640
aI4641
aI4642
aI4643
aI4644
aI4645
aI4646
aI4647
aI4648
aI4649
aI4650
aI4651
aI4652
aI4653
aI4654
aI4655
aI4656
aI4657
aI4658
aI4659
aI4660
aI4661
aI4662
aI4663
aI4664
aI4665
aI4666
aI4667
aI4668
aI4669
aI4670
aI4671
aI4672
aI4673
aI4674
aI4675
aI4676
aI4677
aI4678
aI4679
aI4680
aI4681
aI4682
aI4683
aI4684
aI4685
aI4686
aI4687
aI4688
aI4689
aI4690
aI4691
aI4692
aI4693
aI4694
aI4695
aI4696
aI4697
aI4698
aI4699
aI4700
aI4701
aI4702
aI4703
aI4704
aI4705
aI4706
aI4707
aI4708
aI4709
aI4710
aI4711
aI4712
aI4713
aI4714
aI4715
aI4716
aI4717
aI4718
aI4719
aI4720
aI4721
aI4722
aI4723
aI4724
aI4725
aI4726
aI4727
aI4728
aI4729
aI4730
aI4731
aI4732
aI4733
aI4734
aI4735
aI4736
aI4737
aI4738
aI4739
aI4740
aI4741
aI4742
aI4743
aI4744
aI4745
aI4746
aI4747
aI4748
aI4749
aI4750
aI4751
aI4752
aI4753
aI4754
aI4755
aI4756
aI4757
aI4758
aI4759
aI4760
aI4761
aI4762
aI4763
aI4764
aI4765
aI4766
aI4767
aI4768
aI4769
aI4770
aI4771
aI4772
aI4773
aI4774
aI4775
aI4776
aI4777
aI4778
aI4779
aI4780
aI4781
aI4782
aI4783
aI4784
aI4785
aI4786
aI4787
aI4788
aI4789
aI4790
aI4791
aI4792
aI4793
aI4794
aI4795
aI4796
aI4797
aI4798
aI4799
aI4800
aI4801
aI4802
aI4803
aI4804
aI4805
aI4806
aI4807
aI4808
aI4809
aI4810
aI4811
aI4812
aI4813
aI4814
aI4815
aI4816
aI4817
aI4818
aI4819
aI4820
aI4821
aI4822
aI4823
aI4824
aI4825
aI4826
aI4827
aI4828
aI4829
aI4830
aI4831
aI4832
aI4833
aI4834
aI4835
aI4836
aI4837
aI4838
aI4839
aI4840
aI4841
aI4842
aI4843
aI4844
aI4845
aI4846
aI4847
aI4848
aI4849
aI4850
aI4851
aI4852
aI4853
aI4854
aI4855
aI4856
aI4857
aI4858
aI4859
aI4860
aI4861
aI4862
aI4863
aI4864
aI4865
aI4866
aI4867
aI4868
aI4869
aI4870
aI4871
aI4872
aI4873
aI4874
aI4875
aI4876
aI4877
aI4878
aI4879
aI4880
aI4881
aI4882
aI4883
aI4884
aI4885
aI4886
aI4887
aI4888
aI4889
aI4890
aI4891
aI4892
aI4893
aI4894
aI4895
aI4896
aI4897
aI4898
aI4899
aI4900
aI4901
aI4902
aI4903
aI4904
aI4905
aI4906
aI4907
aI4908
aI4909
aI4910
aI4911
aI4912
aI4913
aI4914
aI4915
aI4916
aI4917
aI4918
aI4919
aI4920
aI4921
aI4922
aI4923
aI4924
aI4925
aI4926
aI4927
aI4928
aI4929
aI4930
aI4931
aI4932
aI4933
aI4934
aI4935
aI4936
aI4937
aI4938
aI4939
aI4940
aI4941
aI4942
aI4943
aI4944
aI4945
aI4946
aI4947
aI4948
aI4949
aI4950
aI4951
aI4952
aI4953
aI4954
aI4955
aI4956
aI4957
aI4958
aI4959
aI4960
aI4961
aI4962
aI4963
aI4964
aI4965
aI4966
aI4967
aI4968
aI4969
aI4970
aI4971
aI4972
aI4973
aI4974
aI4975
aI4976
aI4977
aI4978
aI4979
aI4980
aI4981
aI4982
aI4983
aI4984
aI4985
aI4986
aI4987
aI4988
aI4989
aI4990
aI4991
aI4992
aI4993
aI4994
aI4995
aI4996
aI4997
aI4998
aI4999
aI5000
aI5001
aI5002
aI5003
aI5004
aI5005
aI5006
aI5007
aI5008
aI5009
aI5010
aI5011
aI5012
aI5013
aI5014
aI5015
aI5016
aI5017
aI5018
aI5019
aI5020
aI5021
aI5022
aI5023
aI5024
aI5025
aI5026
aI5027
aI5028
aI5029
aI5030
aI5031
aI5032
aI5033
aI5034
aI5035
aI5036
aI5037
aI5038
aI5039
aI5040
aI5041
aI5042
aI5043
aI5044
aI5045
aI5046
aI5047
aI5048
aI5049
aI5050
aI5051
aI5052
aI5053
aI5054
aI5055
aI5056
aI5057
aI5058
aI5059
aI5060
aI5061
aI5062
aI5063
aI5064
aI5065
aI5066
aI5067
aI5068
aI5069
aI5070
aI5071
aI5072
aI5073
aI5074
aI5075
aI5076
aI5077
aI5078
aI5079
aI5080
aI5081
aI5082
aI5083
aI5084
aI5085
aI5086
aI5087
aI5088
aI5089
aI5090
aI5091
aI5092
aI5093
aI5094
aI5095
aI5096
aI5097
aI5098
aI5099
aI5100
aI5101
aI5102
aI5103
aI5104
aI5105
aI5106
aI5107
aI5108
aI5109
aI5110
aI5111
aI5112
aI5113
aI5114
aI5115
aI5116
aI5117
aI5118
aI5119
aI5120
aI5121
aI5122
aI5123
aI5124
aI5125
aI5126
aI5127
aI5128
aI5129
aI5130
aI5131
aI5132
aI5133
aI5134
aI5135
aI5136
aI5137
aI5138
aI5139
aI5140
aI5141
aI5142
aI5143
aI5144
aI5145
aI5146
aI5147
aI5148
aI5149
aI5150
aI5151
aI5152
aI5153
aI5154
aI5155
aI5156
aI5157
aI5158
aI5159
aI5160
aI5161
aI5162
aI5163
aI5164
aI5165
aI5166
aI5167
aI5168
aI5169
aI5170
aI5171
aI5172
aI5173
aI5174
aI5175
aI5176
aI5177
aI5178
aI5179
aI5180
aI5181
aI5182
aI5183
aI5184
aI5185
aI5186
aI5187
aI5188
aI5189
aI5190
aI5191
aI5192
aI5193
aI5194
aI5195
aI5196
aI5197
aI5198
aI5199
aI5200
aI5201
aI5202
aI5203
aI5204
aI5205
aI5206
aI5207
aI5208
aI5209
aI5210
aI5211
aI5212
aI5213
aI5214
aI5215
aI5216
aI5217
aI5218
aI5219
aI5220
aI5221
aI5222
aI5223
aI5224
aI5225
aI5226
aI5227
aI5228
aI5229
aI5230
aI5231
aI5232
aI5233
aI5234
aI5235
aI5236
aI5237
aI5238
aI5239
aI5240
aI5241
aI5242
aI5243
aI5244
aI5245
aI5246
aI5247
aI5248
aI5249
aI5250
aI5251
aI5252
aI5253
aI5254
aI5255
aI5256
aI5257
aI5258
aI5259
aI5260
aI5261
aI5262
aI5263
aI5264
aI5265
aI5266
aI5267
aI5268
aI5269
aI5270
aI5271
aI5272
aI5273
aI5274
aI5275
aI5276
aI5277
aI5278
aI5279
aI5280
aI5281
aI5282
aI5283
aI5284
aI5285
aI5286
aI5287
aI5288
aI5289
aI5290
aI5291
aI5292
aI5293
aI5294
aI5295
aI5296
aI5297
aI5298
aI5299
aI5300
aI5301
aI5302
aI5303
aI5304
aI5305
aI5306
aI5307
aI5308
aI5309
aI5310
aI5311
aI5312
aI5313
aI5314
aI5315
aI5316
aI5317
aI5318
aI5319
aI5320
aI5321
aI5322
aI5323
aI5324
aI5325
aI5326
aI5327
aI5328
aI5329
aI5330
aI5331
aI5332
aI5333
aI5334
aI5335
aI5336
aI5337
aI5338
aI5339
aI5340
aI5341
aI5342
aI5343
aI5344
aI5345
aI5346
aI5347
aI5348
aI5349
aI5350
aI5351
aI5352
aI5353
aI5354
aI5355
aI5356
aI5357
aI5358
aI5359
aI5360
aI5361
aI5362
aI5363
aI5364
aI5365
aI5366
aI5367
aI5368
aI5369
aI5370
aI5371
aI5372
aI5373
aI5374
aI5375
aI5376
aI5377
aI5378
aI5379
aI5380
aI5381
aI5382
aI5383
aI5384
aI5385
aI5386
aI5387
aI5388
aI5389
aI5390
aI5391
aI5392
aI5393
aI5394
aI5395
aI5396
aI5397
aI5398
aI5399
aI5400
aI5401
aI5402
aI5403
aI5404
aI5405
aI5406
aI5407
aI5408
aI5409
aI5410
aI5411
aI5412
aI5413
aI5414
aI5415
aI5416
aI5417
aI5418
aI5419
aI5420
aI5421
aI5422
aI5423
aI5424
aI5425
aI5426
aI5427
aI5428
aI5429
aI5430
aI5431
aI5432
aI5433
aI5434
aI5435
aI5436
aI5437
aI5438
aI5439
aI5440
aI5441
aI5442
aI5443
aI5444
aI5445
aI5446
aI5447
aI5448
aI5449
aI5450
aI5451
aI5452
aI5453
aI5454
aI5455
aI5456
aI5457
aI5458
aI5459
aI5460
aI5461
aI5462
aI5463
aI5464
aI5465
aI5466
aI5467
aI5468
aI5469
aI5470
aI5471
aI5472
aI5473
aI5474
aI5475
aI5476
aI5477
aI5478
aI5479
aI5480
aI5481
aI5482
aI5483
aI5484
aI5485
aI5486
aI5487
aI5488
aI5489
aI5490
aI5491
aI5492
aI5493
aI5494
aI5495
aI5496
aI5497
aI5498
aI5499
aI5500
aI5501
aI5502
aI5503
aI5504
aI5505
aI5506
aI5507
aI5508
aI5509
aI5510
aI5511
aI5512
aI5513
aI5514
aI5515
aI5516
aI5517
aI5518
aI5519
aI5520
aI5521
aI5522
aI5523
aI5524
aI5525
aI5526
aI5527
aI5528
aI5529
aI5530
aI5531
aI5532
aI5533
aI5534
aI5535
aI5536
aI5537
aI5538
aI5539
aI5540
aI5541
aI5542
aI5543
aI5544
aI5545
aI5546
aI5547
aI5548
aI5549
aI5550
aI5551
aI5552
aI5553
aI5554
aI5555
aI5556
aI5557
aI5558
aI5559
aI5560
aI5561
aI5562
aI5563
aI5564
aI5565
aI5566
aI5567
aI5568
aI5569
aI5570
aI5571
aI5572
aI5573
aI5574
aI5575
aI5576
aI5577
aI5578
aI5579
aI5580
aI5581
aI5582
aI5583
aI5584
aI5585
aI5586
aI5587
aI5588
aI5589
aI5590
aI5591
aI5592
aI5593
aI5594
aI5595
aI5596
aI5597
aI5598
aI5599
aI5600
aI5601
aI5602
aI5603
aI5604
aI5605
aI5606
aI5607
aI5608
aI5609
aI5610
aI5611
aI5612
aI5613
aI5614
aI5615
aI5616
aI5617
aI5618
aI5619
aI5620
aI5621
aI5622
aI5623
aI5624
aI5625
aI5626
aI5627
aI5628
aI5629
aI5630
aI5631
aI5632
aI5633
aI5634
aI5635
aI5636
aI5637
aI5638
aI5639
aI5640
aI5641
aI5642
aI5643
aI5644
aI5645
aI5646
aI5647
aI5648
aI5649
aI5650
aI5651
aI5652
aI5653
aI5654
aI5655
aI5656
aI5657
aI5658
aI5659
aI5660
aI5661
aI5662
aI5663
aI5664
aI5665
aI5666
aI5667
aI5668
aI5669
aI5670
aI5671
aI5672
aI5673
aI5674
aI5675
aI5676
aI5677
aI5678
aI5679
aI5680
aI5681
aI5682
aI5683
aI5684
aI5685
aI5686
aI5687
aI5688
aI5689
aI5690
aI5691
aI5692
aI5693
aI5694
aI5695
aI5696
aI5697
aI5698
aI5699
aI5700
aI5701
aI5702
aI5703
aI5704
aI5705
aI5706
aI5707
aI5708
aI5709
aI5710
aI5711
aI5712
aI5713
aI5714
aI5715
aI5716
aI5717
aI5718
aI5719
aI5720
aI5721
aI5722
aI5723
aI5724
aI5725
aI5726
aI5727
aI5728
aI5729
aI5730
aI5731
aI5732
aI5733
aI5734
aI5735
aI5736
aI5737
aI5738
aI5739
aI5740
aI5741
aI5742
aI5743
aI5744
aI5745
aI5746
aI5747
aI5748
aI5749
aI5750
aI5751
aI5752
aI5753
aI5754
aI5755
aI5756
aI5757
aI5758
aI5759
aI5760
aI5761
aI5762
aI5763
aI5764
aI5765
aI5766
aI5767
aI5768
aI5769
aI5770
aI5771
aI5772
aI5773
aI5774
aI5775
aI5776
aI5777
aI5778
aI5779
aI5780
aI5781
aI5782
aI5783
aI5784
aI5785
aI5786
aI5787
aI5788
aI5789
aI5790
aI5791
aI5792
aI5793
aI5794
aI5795
aI5796
aI5797
aI5798
aI5799
aI5800
aI5801
aI5802
aI5803
aI5804
aI5805
aI5806
aI5807
aI5808
aI5809
aI5810
aI5811
aI5812
aI5813
aI5814
aI5815
aI5816
aI5817
aI5818
aI5819
aI5820
aI5821
aI5822
aI5823
aI5824
aI5825
aI5826
aI5827
aI5828
aI5829
aI5830
aI5831
aI5832
aI5833
aI5834
aI5835
aI5836
aI5837
aI5838
aI5839
aI5840
aI5841
aI5842
aI5843
aI5844
aI5845
aI5846
aI5847
aI5848
aI5849
aI5850
aI5851
aI5852
aI5853
aI5854
aI5855
aI5856
aI5857
aI5858
aI5859
aI5860
aI5861
aI5862
aI5863
aI5864
aI5865
aI5866
aI5867
aI5868
aI5869
aI5870
aI5871
aI5872
aI5873
aI5874
aI5875
aI5876
aI5877
aI5878
aI5879
aI5880
aI5881
aI5882
aI5883
aI5884
aI5885
aI5886
aI5887
aI5888
aI5889
aI5890
aI5891
aI5892
aI5893
aI5894
aI5895
aI5896
aI5897
aI5898
aI5899
aI5900
aI5901
aI5902
aI5903
aI5904
aI5905
aI5906
aI5907
aI5908
aI5909
aI5910
aI5911
aI5912
aI5913
aI5914
aI5915
aI5916
aI5917
aI5918
aI5919
aI5920
aI5921
aI5922
aI5923
aI5924
aI5925
aI5926
aI5927
aI5928
aI5929
aI5930
aI5931
aI5932
aI5933
aI5934
aI5935
aI5936
aI5937
aI5938
aI5939
aI5940
aI5941
aI5942
aI5943
aI5944
aI5945
aI5946
aI5947
aI5948
aI5949
aI5950
aI5951
aI5952
aI5953
aI5954
aI5955
aI5956
aI5957
aI5958
aI5959
aI5960
aI5961
aI5962
aI5963
aI5964
aI5965
aI5966
aI5967
aI5968
aI5969
aI5970
aI5971
aI5972
aI5973
aI5974
aI5975
aI5976
aI5977
aI5978
aI5979
aI5980
aI5981
aI5982
aI5983
aI5984
aI5985
aI5986
aI5987
aI5988
aI5989
aI5990
aI5991
aI5992
aI5993
aI5994
aI5995
aI5996
aI5997
aI5998
aI5999
aI6000
aI6001
aI6002
aI6003
aI6004
aI6005
aI6006
aI6007
aI6008
aI6009
aI6010
aI6011
aI6012
aI6013
aI6014
aI6015
aI6016
aI6017
aI6018
aI6019
aI6020
aI6021
aI6022
aI6023
aI6024
aI6025
aI6026
aI6027
aI6028
aI6029
aI6030
aI6031
aI6032
aI6033
aI6034
aI6035
aI6036
aI6037
aI6038
aI6039
aI6040
aI6041
aI6042
aI6043
aI6044
aI6045
aI6046
aI6047
aI6048
aI6049
aI6050
aI6051
aI6052
aI6053
aI6054
aI6055
aI6056
aI6057
aI6058
aI6059
aI6060
aI6061
aI6062
aI6063
aI6064
aI6065
aI6066
aI6067
aI6068
aI6069
aI6070
aI6071
aI6072
aI6073
aI6074
aI6075
aI6076
aI6077
aI6078
aI6079
aI6080
aI6081
aI6082
aI6083
aI6084
aI6085
aI6086
aI6087
aI6088
aI6089
aI6090
aI6091
aI6092
aI6093
aI6094
aI6095
aI6096
aI6097
aI6098
aI6099
aI6100
aI6101
aI6102
aI6103
aI6104
aI6105
aI6106
aI6107
aI6108
aI6109
aI6110
aI6111
aI6112
aI6113
aI6114
aI6115
aI6116
aI6117
aI6118
aI6119
aI6120
aI6121
aI6122
aI6123
aI6124
aI6125
aI6126
aI6127
aI6128
aI6129
aI6130
aI6131
aI6132
aI6133
aI6134
aI6135
aI6136
aI6137
aI6138
aI6139
aI6140
aI6141
aI6142
aI6143
aI6144
aI6145
aI6146
aI6147
aI6148
aI6149
aI6150
aI6151
aI6152
aI6153
aI6154
aI6155
aI6156
aI6157
aI6158
aI6159
aI6160
aI6161
aI6162
aI6163
aI6164
aI6165
aI6166
aI6167
aI6168
aI6169
aI6170
aI6171
aI6172
aI6173
aI6174
aI6175
aI6176
aI6177
aI6178
aI6179
aI6180
aI6181
aI6182
aI6183
aI6184
aI6185
aI6186
aI6187
aI6188
aI6189
aI6190
aI6191
aI6192
aI6193
aI6194
aI6195
aI6196
aI6197
aI6198
aI6199
aI6200
aI6201
aI6202
aI6203
aI6204
aI6205
aI6206
aI6207
aI6208
aI6209
aI6210
aI6211
aI6212
aI6213
aI6214
aI6215
aI6216
aI6217
aI6218
aI6219
aI6220
aI6221
aI6222
aI6223
aI6224
aI6225
aI6226
aI6227
aI6228
aI6229
aI6230
aI6231
aI6232
aI6233
aI6234
aI6235
aI6236
aI6237
aI6238
aI6239
aI6240
aI6241
aI6242
aI6243
aI6244
aI6245
aI6246
aI6247
aI6248
aI6249
aI6250
aI6251
aI6252
aI6253
aI6254
aI6255
aI6256
aI6257
aI6258
aI6259
aI6260
aI6261
aI6262
aI6263
aI6264
aI6265
aI6266
aI6267
aI6268
aI6269
aI6270
aI6271
aI6272
aI6273
aI6274
aI6275
aI6276
aI6277
aI6278
aI6279
aI6280
aI6281
aI6282
aI6283
aI6284
aI6285
aI6286
aI6287
aI6288
aI6289
aI6290
aI6291
aI6292
aI6293
aI6294
aI6295
aI6296
aI6297
aI6298
aI6299
aI6300
aI6301
aI6302
aI6303
aI6304
aI6305
aI6306
aI6307
aI6308
aI6309
aI6310
aI6311
aI6312
aI6313
aI6314
aI6315
aI6316
aI6317
aI6318
aI6319
aI6320
aI6321
aI6322
aI6323
aI6324
aI6325
aI6326
aI6327
aI6328
aI6329
aI6330
aI6331
aI6332
aI6333
aI6334
aI6335
aI6336
aI6337
aI6338
aI6339
aI6340
aI6341
aI6342
aI6343
aI6344
aI6345
aI6346
aI6347
aI6348
aI6349
aI6350
aI6351
aI6352
aI6353
aI6354
aI6355
aI6356
aI6357
aI6358
aI6359
aI6360
aI6361
aI6362
aI6363
aI6364
aI6365
aI6366
aI6367
aI6368
aI6369
aI6370
aI6371
aI6372
aI6373
aI6374
aI6375
aI6376
aI6377
aI6378
aI6379
aI6380
aI6381
aI6382
aI6383
aI6384
aI6385
aI6386
aI6387
aI6388
aI6389
aI6390
aI6391
aI6392
aI6393
aI6394
aI6395
aI6396
aI6397
aI6398
aI6399
aI6400
aI6401
aI6402
aI6403
aI6404
aI6405
aI6406
aI6407
aI6408
aI6409
aI6410
aI6411
aI6412
aI6413
aI6414
aI6415
aI6416
aI6417
aI6418
aI6419
aI6420
aI6421
aI6422
aI6423
aI6424
aI6425
aI6426
aI6427
aI6428
aI6429
aI6430
aI6431
aI6432
aI6433
aI6434
aI6435
aI6436
aI6437
aI6438
aI6439
aI6440
aI6441
aI6442
aI6443
aI6444
aI6445
aI6446
aI6447
aI6448
aI6449
aI6450
aI6451
aI6452
aI6453
aI6454
aI6455
aI6456
aI6457
aI6458
aI6459
aI6460
aI6461
aI6462
aI6463
aI6464
aI6465
aI6466
aI6467
aI6468
aI6469
aI6470
aI6471
aI6472
aI6473
aI6474
aI6475
aI6476
aI6477
aI6478
aI6479
aI6480
aI6481
aI6482
aI6483
aI6484
aI6485
aI6486
aI6487
aI6488
aI6489
aI6490
aI6491
aI6492
aI6493
aI6494
aI6495
aI6496
aI6497
aI6498
aI6499
aI6500
aI6501
aI6502
aI6503
aI6504
aI6505
aI6506
aI6507
aI6508
aI6509
aI6510
aI6511
aI6512
aI6513
aI6514
aI6515
aI6516
aI6517
aI6518
aI6519
aI6520
aI6521
aI6522
aI6523
aI6524
aI6525
aI6526
aI6527
aI6528
aI6529
aI6530
aI6531
aI6532
aI6533
aI6534
aI6535
aI6536
aI6537
aI6538
aI6539
aI6540
aI6541
aI6542
aI6543
aI6544
aI6545
aI6546
aI6547
aI6548
aI6549
aI6550
aI6551
aI6552
aI6553
aI6554
aI6555
aI6556
aI6557
aI6558
aI6559
aI6560
aI6561
aI6562
aI6563
aI6564
aI6565
aI6566
aI6567
aI6568
aI6569
aI6570
aI6571
aI6572
aI6573
aI6574
aI6575
aI6576
aI6577
aI6578
aI6579
aI6580
aI6581
aI6582
aI6583
aI6584
aI6585
aI6586
aI6587
aI6588
aI6589
aI6590
aI6591
aI6592
aI6593
aI6594
aI6595
aI6596
aI6597
aI6598
aI6599
aI6600
aI6601
aI6602
aI6603
aI6604
aI6605
aI6606
aI6607
aI6608
aI6609
aI6610
aI6611
aI6612
aI6613
aI6614
aI6615
aI6616
aI6617
aI6618
aI6619
aI6620
aI6621
aI6622
aI6623
aI6624
aI6625
aI6626
aI6627
aI6628
aI6629
aI6630
aI6631
aI6632
aI6633
aI6634
aI6635
aI6636
aI6637
aI6638
aI6639
aI6640
aI6641
aI6642
aI6643
aI6644
aI6645
aI6646
aI6647
aI6648
aI6649
aI6650
aI6651
aI6652
aI6653
aI6654
aI6655
aI6656
aI6657
aI6658
aI6659
aI6660
aI6661
aI6662
aI6663
aI6664
aI6665
aI6666
aI6667
aI6668
aI6669
aI6670
aI6671
aI6672
aI6673
aI6674
aI6675
aI6676
aI6677
aI6678
aI6679
aI6680
aI6681
aI6682
aI6683
aI6684
aI6685
aI6686
aI6687
aI6688
aI6689
aI6690
aI6691
aI6692
aI6693
aI6694
aI6695
aI6696
aI6697
aI6698
aI6699
aI6700
aI6701
aI6702
aI6703
aI6704
aI6705
aI6706
aI6707
aI6708
aI6709
aI6710
aI6711
aI6712
aI6713
aI6714
aI6715
aI6716
aI6717
aI6718
aI6719
aI6720
aI6721
aI6722
aI6723
aI6724
aI6725
aI6726
aI6727
aI6728
aI6729
aI6730
aI6731
aI6732
aI6733
aI6734
aI6735
aI6736
aI6737
aI6738
aI6739
aI6740
aI6741
aI6742
aI6743
aI6744
aI6745
aI6746
aI6747
aI6748
aI6749
aI6750
aI6751
aI6752
aI6753
aI6754
aI6755
aI6756
aI6757
aI6758
aI6759
aI6760
aI6761
aI6762
aI6763
aI6764
aI6765
aI6766
aI6767
aI6768
aI6769
aI6770
aI6771
aI6772
aI6773
aI6774
aI6775
aI6776
aI6777
aI6778
aI6779
aI6780
aI6781
aI6782
aI6783
aI6784
aI6785
aI6786
aI6787
aI6788
aI6789
aI6790
aI6791
aI6792
aI6793
aI6794
aI6795
aI6796
aI6797
aI6798
aI6799
aI6800
aI6801
aI6802
aI6803
aI6804
aI6805
aI6806
aI6807
aI6808
aI6809
aI6810
aI6811
aI6812
aI6813
aI6814
aI6815
aI6816
aI6817
aI6818
aI6819
aI6820
aI6821
aI6822
aI6823
aI6824
aI6825
aI6826
aI6827
aI6828
aI6829
aI6830
aI6831
aI6832
aI6833
aI6834
aI6835
aI6836
aI6837
aI6838
aI6839
aI6840
aI6841
aI6842
aI6843
aI6844
aI6845
aI6846
aI6847
aI6848
aI6849
aI6850
aI6851
aI6852
aI6853
aI6854
aI6855
aI6856
aI6857
aI6858
aI6859
aI6860
aI6861
aI6862
aI6863
aI6864
aI6865
aI6866
aI6867
aI6868
aI6869
aI6870
aI6871
aI6872
aI6873
aI6874
aI6875
aI6876
aI6877
aI6878
aI6879
aI6880
aI6881
aI6882
aI6883
aI6884
aI6885
aI6886
aI6887
aI6888
aI6889
aI6890
aI6891
aI6892
aI6893
aI6894
aI6895
aI6896
aI6897
aI6898
aI6899
aI6900
aI6901
aI6902
aI6903
aI6904
aI6905
aI6906
aI6907
aI6908
aI6909
aI6910
aI6911
aI6912
aI6913
aI6914
aI6915
aI6916
aI6917
aI6918
aI6919
aI6920
aI6921
aI6922
aI6923
aI6924
aI6925
aI6926
aI6927
aI6928
aI6929
aI6930
aI6931
aI6932
aI6933
aI6934
aI6935
aI6936
aI6937
aI6938
aI6939
aI6940
aI6941
aI6942
aI6943
aI6944
aI6945
aI6946
aI6947
aI6948
aI6949
aI6950
aI6951
aI6952
aI6953
aI6954
aI6955
aI6956
aI6957
aI6958
aI6959
aI6960
aI6961
aI6962
aI6963
aI6964
aI6965
aI6966
aI6967
aI6968
aI6969
aI6970
aI6971
aI6972
aI6973
aI6974
aI6975
aI6976
aI6977
aI6978
aI6979
aI6980
aI6981
aI6982
aI6983
aI6984
aI6985
aI6986
aI6987
aI6988
aI6989
aI6990
aI6991
aI6992
aI6993
aI6994
aI6995
aI6996
aI6997
aI6998
aI6999
aI7000
aI7001
aI7002
aI7003
aI7004
aI7005
aI7006
aI7007
aI7008
aI7009
aI7010
aI7011
aI7012
aI7013
aI7014
aI7015
aI7016
aI7017
aI7018
aI7019
aI7020
aI7021
aI7022
aI7023
aI7024
aI7025
aI7026
aI7027
aI7028
aI7029
aI7030
aI7031
aI7032
aI7033
aI7034
aI7035
aI7036
aI7037
aI7038
aI7039
aI7040
aI7041
aI7042
aI7043
aI7044
aI7045
aI7046
aI7047
aI7048
aI7049
aI7050
aI7051
aI7052
aI7053
aI7054
aI7055
aI7056
aI7057
aI7058
aI7059
aI7060
aI7061
aI7062
aI7063
aI7064
aI7065
aI7066
aI7067
aI7068
aI7069
aI7070
aI7071
aI7072
aI7073
aI7074
aI7075
aI7076
aI7077
aI7078
aI7079
aI7080
aI7081
aI7082
aI7083
aI7084
aI7085
aI7086
aI7087
aI7088
aI7089
aI7090
aI7091
aI7092
aI7093
aI7094
aI7095
aI7096
aI7097
aI7098
aI7099
aI7100
aI7101
aI7102
aI7103
aI7104
aI7105
aI7106
aI7107
aI7108
aI7109
aI7110
aI7111
aI7112
aI7113
aI7114
aI7115
aI7116
aI7117
aI7118
aI7119
aI7120
aI7121
aI7122
aI7123
aI7124
aI7125
aI7126
aI7127
aI7128
aI7129
aI7130
aI7131
aI7132
aI7133
aI7134
aI7135
aI7136
aI7137
aI7138
aI7139
aI7140
aI7141
aI7142
aI7143
aI7144
aI7145
aI7146
aI7147
aI7148
aI7149
aI7150
aI7151
aI7152
aI7153
aI7154
aI7155
aI7156
aI7157
aI7158
aI7159
aI7160
aI7161
aI7162
aI7163
aI7164
aI7165
aI7166
aI7167
aI7168
aI7169
aI7170
aI7171
aI7172
aI7173
aI7174
aI7175
aI7176
aI7177
aI7178
aI7179
aI7180
aI7181
aI7182
aI7183
aI7184
aI7185
aI7186
aI7187
aI7188
aI7189
aI7190
aI7191
aI7192
aI7193
aI7194
aI7195
aI7196
aI7197
aI7198
aI7199
aI7200
aI7201
aI7202
aI7203
aI7204
aI7205
aI7206
aI7207
aI7208
aI7209
aI7210
aI7211
aI7212
aI7213
aI7214
aI7215
aI7216
aI7217
aI7218
aI7219
aI7220
aI7221
aI7222
aI7223
aI7224
aI7225
aI7226
aI7227
aI7228
aI7229
aI7230
aI7231
aI7232
aI7233
aI7234
aI7235
aI7236
aI7237
aI7238
aI7239
aI7240
aI7241
aI7242
aI7243
aI7244
aI7245
aI7246
aI7247
aI7248
aI7249
aI7250
aI7251
aI7252
aI7253
aI7254
aI7255
aI7256
aI7257
aI7258
aI7259
aI7260
aI7261
aI7262
aI7263
aI7264
aI7265
aI7266
aI7267
aI7268
aI7269
aI7270
aI7271
aI7272
aI7273
aI7274
aI7275
aI7276
aI7277
aI7278
aI7279
aI7280
aI7281
aI7282
aI7283
aI7284
aI7285
aI7286
aI7287
aI7288
aI7289
aI7290
aI7291
aI7292
aI7293
aI7294
aI7295
aI7296
aI7297
aI7298
aI7299
aI7300
aI7301
aI7302
aI7303
aI7304
aI7305
aI7306
aI7307
aI7308
aI7309
aI7310
aI7311
aI7312
aI7313
aI7314
aI7315
aI7316
aI7317
aI7318
aI7319
aI7320
aI7321
aI7322
aI7323
aI7324
aI7325
aI7326
aI7327
aI7328
aI7329
aI7330
aI7331
aI7332
aI7333
aI7334
aI7335
aI7336
aI7337
aI7338
aI7339
aI7340
aI7341
aI7342
aI7343
aI7344
aI7345
aI7346
aI7347
aI7348
aI7349
aI7350
aI7351
aI7352
aI7353
aI7354
aI7355
aI7356
aI7357
aI7358
aI7359
aI7360
aI7361
aI7362
aI7363
aI7364
aI7365
aI7366
aI7367
aI7368
aI7369
aI7370
aI7371
aI7372
aI7373
aI7374
aI7375
aI7376
aI7377
aI7378
aI7379
aI7380
aI7381
aI7382
aI7383
aI7384
aI7385
aI7386
aI7387
aI7388
aI7389
aI7390
aI7391
aI7392
aI7393
aI7394
aI7395
aI7396
aI7397
aI7398
aI7399
aI7400
aI7401
aI7402
aI7403
aI7404
aI7405
aI7406
aI7407
aI7408
aI7409
aI7410
aI7411
aI7412
aI7413
aI7414
aI7415
aI7416
aI7417
aI7418
aI7419
aI7420
aI7421
aI7422
aI7423
aI7424
aI7425
aI7426
aI7427
aI7428
aI7429
aI7430
aI7431
aI7432
aI7433
aI7434
aI7435
aI7436
aI7437
aI7438
aI7439
aI7440
aI7441
aI7442
aI7443
aI7444
aI7445
aI7446
aI7447
aI7448
aI7449
aI7450
aI7451
aI7452
aI7453
aI7454
aI7455
aI7456
aI7457
aI7458
aI7459
aI7460
aI7461
aI7462
aI7463
aI7464
aI7465
aI7466
aI7467
aI7468
aI7469
aI7470
aI7471
aI7472
aI7473
aI7474
aI7475
aI7476
aI7477
aI7478
aI7479
aI7480
aI7481
aI7482
aI7483
aI7484
aI7485
aI7486
aI7487
aI7488
aI7489
aI7490
aI7491
aI7492
aI7493
aI7494
aI7495
aI7496
aI7497
aI7498
aI7499
aI7500
aI7501
aI7502
aI7503
aI7504
aI7505
aI7506
aI7507
aI7508
aI7509
aI7510
aI7511
aI7512
aI7513
aI7514
aI7515
aI7516
aI7517
aI7518
aI7519
aI7520
aI7521
aI7522
aI7523
aI7524
aI7525
aI7526
aI7527
aI7528
aI7529
aI7530
aI7531
aI7532
aI7533
aI7534
aI7535
aI7536
aI7537
aI7538
aI7539
aI7540
aI7541
aI7542
aI7543
aI7544
aI7545
aI7546
aI7547
aI7548
aI7549
aI7550
aI7551
aI7552
aI7553
aI7554
aI7555
aI7556
aI7557
aI7558
aI7559
aI7560
aI7561
aI7562
aI7563
aI7564
aI7565
aI7566
aI7567
aI7568
aI7569
aI7570
aI7571
aI7572
aI7573
aI7574
aI7575
aI7576
aI7577
aI7578
aI7579
aI7580
aI7581
aI7582
aI7583
aI7584
aI7585
aI7586
aI7587
aI7588
aI7589
aI7590
aI7591
aI7592
aI7593
aI7594
aI7595
aI7596
aI7597
aI7598
aI7599
aI7600
aI7601
aI7602
aI7603
aI7604
aI7605
aI7606
aI7607
aI7608
aI7609
aI7610
aI7611
aI7612
aI7613
aI7614
aI7615
aI7616
aI7617
aI7618
aI7619
aI7620
aI7621
aI7622
aI7623
aI7624
aI7625
aI7626
aI7627
aI7628
aI7629
aI7630
aI7631
aI7632
aI7633
aI7634
aI7635
aI7636
aI7637
aI7638
aI7639
aI7640
aI7641
aI7642
aI7643
aI7644
aI7645
aI7646
aI7647
aI7648
aI7649
aI7650
aI7651
aI7652
aI7653
aI7654
aI7655
aI7656
aI7657
aI7658
aI7659
aI7660
aI7661
aI7662
aI7663
aI7664
aI7665
aI7666
aI7667
aI7668
aI7669
aI7670
aI7671
aI7672
aI7673
aI7674
aI7675
aI7676
aI7677
aI7678
aI7679
aI7680
aI7681
aI7682
aI7683
aI7684
aI7685
aI7686
aI7687
aI7688
aI7689
aI7690
aI7691
aI7692
aI7693
aI7694
aI7695
aI7696
aI7697
aI7698
aI7699
aI7700
aI7701
aI7702
aI7703
aI7704
aI7705
aI7706
aI7707
aI7708
aI7709
aI7710
aI7711
aI7712
aI7713
aI7714
aI7715
aI7716
aI7717
aI7718
aI7719
aI7720
aI7721
aI7722
aI7723
aI7724
aI7725
aI7726
aI7727
aI7728
aI7729
aI7730
aI7731
aI7732
aI7733
aI7734
aI7735
aI7736
aI7737
aI7738
aI7739
aI7740
aI7741
aI7742
aI7743
aI7744
aI7745
aI7746
aI7747
aI7748
aI7749
aI7750
aI7751
aI7752
aI7753
aI7754
aI7755
aI7756
aI7757
aI7758
aI7759
aI7760
aI7761
aI7762
aI7763
aI7764
aI7765
aI7766
aI7767
aI7768
aI7769
aI7770
aI7771
aI7772
aI7773
aI7774
aI7775
aI7776
aI7777
aI7778
aI7779
aI7780
aI7781
aI7782
aI7783
aI7784
aI7785
aI7786
aI7787
aI7788
aI7789
aI7790
aI7791
aI7792
aI7793
aI7794
aI7795
aI7796
aI7797
aI7798
aI7799
aI7800
aI7801
aI7802
aI7803
aI7804
aI7805
aI7806
aI7807
aI7808
aI7809
aI7810
aI7811
aI7812
aI7813
aI7814
aI7815
aI7816
aI7817
aI7818
aI7819
aI7820
aI7821
aI7822
aI7823
aI7824
aI7825
aI7826
aI7827
aI7828
aI7829
aI7830
aI7831
aI7832
aI7833
aI7834
aI7835
aI7836
aI7837
aI7838
aI7839
aI7840
aI7841
aI7842
aI7843
aI7844
aI7845
aI7846
aI7847
aI7848
aI7849
aI7850
aI7851
aI7852
aI7853
aI7854
aI7855
aI7856
aI7857
aI7858
aI7859
aI7860
aI7861
aI7862
aI7863
aI7864
aI7865
aI7866
aI7867
aI7868
aI7869
aI7870
aI7871
aI7872
aI7873
aI7874
aI7875
aI7876
aI7877
aI7878
aI7879
aI7880
aI7881
aI7882
aI7883
aI7884
aI7885
aI7886
aI7887
aI7888
aI7889
aI7890
aI7891
aI7892
aI7893
aI7894
aI7895
aI7896
aI7897
aI7898
aI7899
aI7900
aI7901
aI7902
aI7903
aI7904
aI7905
aI7906
aI7907
aI7908
aI7909
aI7910
aI7911
aI7912
aI7913
aI7914
aI7915
aI7916
aI7917
aI7918
aI7919
aI7920
aI7921
aI7922
aI7923
aI7924
aI7925
aI7926
aI7927
aI7928
aI7929
aI7930
aI7931
aI7932
aI7933
aI7934
aI7935
aI7936
aI7937
aI7938
aI7939
aI7940
aI7941
aI7942
aI7943
aI7944
aI7945
aI7946
aI7947
aI7948
aI7949
aI7950
aI7951
aI7952
aI7953
aI7954
aI7955
aI7956
aI7957
aI7958
aI7959
aI7960
aI7961
aI7962
aI7963
aI7964
aI7965
aI7966
aI7967
aI7968
aI7969
aI7970
aI7971
aI7972
aI7973
aI7974
aI7975
aI7976
aI7977
aI7978
aI7979
aI7980
aI7981
aI7982
aI7983
aI7984
aI7985
aI7986
aI7987
aI7988
aI7989
aI7990
aI7991
aI7992
aI7993
aI7994
aI7995
aI7996
aI7997
aI7998
aI7999
aI8000
aI8001
aI8002
aI8003
aI8004
aI8005
aI8006
aI8007
aI8008
aI8009
aI8010
aI8011
aI8012
aI8013
aI8014
aI8015
aI8016
aI8017
aI8018
aI8019
aI8020
aI8021
aI8022
aI8023
aI8024
aI8025
aI8026
aI8027
aI8028
aI8029
aI8030
aI8031
aI8032
aI8033
aI8034
aI8035
aI8036
aI8037
aI8038
aI8039
aI8040
aI8041
aI8042
aI8043
aI8044
aI8045
aI8046
aI8047
aI8048
aI8049
aI8050
aI8051
aI8052
aI8053
aI8054
aI8055
aI8056
aI8057
aI8058
aI8059
aI8060
aI8061
aI8062
aI8063
aI8064
aI8065
aI8066
aI8067
aI8068
aI8069
aI8070
aI8071
aI8072
aI8073
aI8074
aI8075
aI8076
aI8077
aI8078
aI8079
aI8080
aI8081
aI8082
aI8083
aI8084
aI8085
aI8086
aI8087
aI8088
aI8089
aI8090
aI8091
aI8092
aI8093
aI8094
aI8095
aI8096
aI8097
aI8098
aI8099
aI8100
aI8101
aI8102
aI8103
aI8104
aI8105
aI8106
aI8107
aI8108
aI8109
aI8110
aI8111
aI8112
aI8113
aI8114
aI8115
aI8116
aI8117
aI8118
aI8119
aI8120
aI8121
aI8122
aI8123
aI8124
aI8125
aI8126
aI8127
aI8128
aI8129
aI8130
aI8131
aI8132
aI8133
aI8134
aI8135
aI8136
aI8137
aI8138
aI8139
aI8140
aI8141
aI8142
aI8143
aI8144
aI8145
aI8146
aI8147
aI8148
aI8149
aI8150
aI8151
aI8152
aI8153
aI8154
aI8155
aI8156
aI8157
aI8158
aI8159
aI8160
aI8161
aI8162
aI8163
aI8164
aI8165
aI8166
aI8167
aI8168
aI8169
aI8170
aI8171
aI8172
aI8173
aI8174
aI8175
aI8176
aI8177
aI8178
aI8179
aI8180
aI8181
aI8182
aI8183
aI8184
aI8185
aI8186
aI8187
aI8188
aI8189
aI8190
aI8191
aI8192
aI8193
aI8194
aI8195
aI8196
aI8197
aI8198
aI8199
aI8200
aI8201
aI8202
aI8203
aI8204
aI8205
aI8206
aI8207
aI8208
aI8209
aI8210
aI8211
aI8212
aI8213
aI8214
aI8215
aI8216
aI8217
aI8218
aI8219
aI8220
aI8221
aI8222
aI8223
aI8224
aI8225
aI8226
aI8227
aI8228
aI8229
aI8230
aI8231
aI8232
aI8233
aI8234
aI8235
aI8236
aI8237
aI8238
aI8239
aI8240
aI8241
aI8242
aI8243
aI8244
aI8245
aI8246
aI8247
aI8248
aI8249
aI8250
aI8251
aI8252
aI8253
aI8254
aI8255
aI8256
aI8257
aI8258
aI8259
aI8260
aI8261
aI8262
aI8263
aI8264
aI8265
aI8266
aI8267
aI8268
aI8269
aI8270
aI8271
aI8272
aI8273
aI8274
aI8275
aI8276
aI8277
aI8278
aI8279
aI8280
aI8281
aI8282
aI8283
aI8284
aI8285
aI8286
aI8287
aI8288
aI8289
aI8290
aI8291
aI8292
aI8293
aI8294
aI8295
aI8296
aI8297
aI8298
aI8299
aI8300
aI8301
aI8302
aI8303
aI8304
aI8305
aI8306
aI8307
aI8308
aI8309
aI8310
aI8311
aI8312
aI8313
aI8314
aI8315
aI8316
aI8317
aI8318
aI8319
aI8320
aI8321
aI8322
aI8323
aI8324
aI8325
aI8326
aI8327
aI8328
aI8329
aI8330
aI8331
aI8332
aI8333
aI8334
aI8335
aI8336
aI8337
aI8338
aI8339
aI8340
aI8341
aI8342
aI8343
aI8344
aI8345
aI8346
aI8347
aI8348
aI8349
aI8350
aI8351
aI8352
aI8353
aI8354
aI8355
aI8356
aI8357
aI8358
aI8359
aI8360
aI8361
aI8362
aI8363
aI8364
aI8365
aI8366
aI8367
aI8368
aI8369
aI8370
aI8371
aI8372
aI8373
aI8374
aI8375
aI8376
aI8377
aI8378
aI8379
aI8380
aI8381
aI8382
aI8383
aI8384
aI8385
aI8386
aI8387
aI8388
aI8389
aI8390
aI8391
aI8392
aI8393
aI8394
aI8395
aI8396
aI8397
aI8398
aI8399
aI8400
aI8401
aI8402
aI8403
aI8404
aI8405
aI8406
aI8407
aI8408
aI8409
aI8410
aI8411
aI8412
aI8413
aI8414
aI8415
aI8416
aI8417
aI8418
aI8419
aI8420
aI8421
aI8422
aI8423
aI8424
aI8425
aI8426
aI8427
aI8428
aI8429
aI8430
aI8431
aI8432
aI8433
aI8434
aI8435
aI8436
aI8437
aI8438
aI8439
aI8440
aI8441
aI8442
aI8443
aI8444
aI8445
aI8446
aI8447
aI8448
aI8449
aI8450
aI8451
aI8452
aI8453
aI8454
aI8455
aI8456
aI8457
aI8458
aI8459
aI8460
aI8461
aI8462
aI8463
aI8464
aI8465
aI8466
aI8467
aI8468
aI8469
aI8470
aI8471
aI8472
aI8473
aI8474
aI8475
aI8476
aI8477
aI8478
aI8479
aI8480
aI8481
aI8482
aI8483
aI8484
aI8485
aI8486
aI8487
aI8488
aI8489
aI8490
aI8491
aI8492
aI8493
aI8494
aI8495
aI8496
aI8497
aI8498
aI8499
aI8500
aI8501
aI8502
aI8503
aI8504
aI8505
aI8506
aI8507
aI8508
aI8509
aI8510
aI8511
aI8512
aI8513
aI8514
aI8515
aI8516
aI8517
aI8518
aI8519
aI8520
aI8521
aI8522
aI8523
aI8524
aI8525
aI8526
aI8527
aI8528
aI8529
aI8530
aI8531
aI8532
aI8533
aI8534
aI8535
aI8536
aI8537
aI8538
aI8539
aI8540
aI8541
aI8542
aI8543
aI8544
aI8545
aI8546
aI8547
aI8548
aI8549
aI8550
aI8551
aI8552
aI8553
aI8554
aI8555
aI8556
aI8557
aI8558
aI8559
aI8560
aI8561
aI8562
aI8563
aI8564
aI8565
aI8566
aI8567
aI8568
aI8569
aI8570
aI8571
aI8572
aI8573
aI8574
aI8575
aI8576
aI8577
aI8578
aI8579
aI8580
aI8581
aI8582
aI8583
aI8584
aI8585
aI8586
aI8587
aI8588
aI8589
aI8590
aI8591
aI8592
aI8593
aI8594
aI8595
aI8596
aI8597
aI8598
aI8599
aI8600
aI8601
aI8602
aI8603
aI8604
aI8605
aI8606
aI8607
aI8608
aI8609
aI8610
aI8611
aI8612
aI8613
aI8614
aI8615
aI8616
aI8617
aI8618
aI8619
aI8620
aI8621
aI8622
aI8623
aI8624
aI8625
aI8626
aI8627
aI8628
aI8629
aI8630
aI8631
aI8632
aI8633
aI8634
aI8635
aI8636
aI8637
aI8638
aI8639
aI8640
aI8641
aI8642
aI8643
aI8644
aI8645
aI8646
aI8647
aI8648
aI8649
aI8650
aI8651
aI8652
aI8653
aI8654
aI8655
aI8656
aI8657
aI8658
aI8659
aI8660
aI8661
aI8662
aI8663
aI8664
aI8665
aI8666
aI8667
aI8668
aI8669
aI8670
aI8671
aI8672
aI8673
aI8674
aI8675
aI8676
aI8677
aI8678
aI8679
aI8680
aI8681
aI8682
aI8683
aI8684
aI8685
aI8686
aI8687
aI8688
aI8689
aI8690
aI8691
aI8692
aI8693
aI8694
aI8695
aI8696
aI8697
aI8698
aI8699
aI8700
aI8701
aI8702
aI8703
aI8704
aI8705
aI8706
aI8707
aI8708
aI8709
aI8710
aI8711
aI8712
aI8713
aI8714
aI8715
aI8716
aI8717
aI8718
aI8719
aI8720
aI8721
aI8722
aI8723
aI8724
aI8725
aI8726
aI8727
aI8728
aI8729
aI8730
aI8731
aI8732
aI8733
aI8734
aI8735
aI8736
aI8737
aI8738
aI8739
aI8740
aI8741
aI8742
aI8743
aI8744
aI8745
aI8746
aI8747
aI8748
aI8749
aI8750
aI8751
aI8752
aI8753
aI8754
aI8755
aI8756
aI8757
aI8758
aI8759
aI8760
aI8761
aI8762
aI8763
aI8764
aI8765
aI8766
aI8767
aI8768
aI8769
aI8770
aI8771
aI8772
aI8773
aI8774
aI8775
aI8776
aI8777
aI8778
aI8779
aI8780
aI8781
aI8782
aI8783
aI8784
aI8785
aI8786
aI8787
aI8788
aI8789
aI8790
aI8791
aI8792
aI8793
aI8794
aI8795
aI8796
aI8797
aI8798
aI8799
aI8800
aI8801
aI8802
aI8803
aI8804
aI8805
aI8806
aI8807
aI8808
aI8809
aI8810
aI8811
aI8812
aI8813
aI8814
aI8815
aI8816
aI8817
aI8818
aI8819
aI8820
aI8821
aI8822
aI8823
aI8824
aI8825
aI8826
aI8827
aI8828
aI8829
aI8830
aI8831
aI8832
aI8833
aI8834
aI8835
aI8836
aI8837
aI8838
aI8839
aI8840
aI8841
aI8842
aI8843
aI8844
aI8845
aI8846
aI8847
aI8848
aI8849
aI8850
aI8851
aI8852
aI8853
aI8854
aI8855
aI8856
aI8857
aI8858
aI8859
aI8860
aI8861
aI8862
aI8863
aI8864
aI8865
aI8866
aI8867
aI8868
aI8869
aI8870
aI8871
aI8872
aI8873
aI8874
aI8875
aI8876
aI8877
aI8878
aI8879
aI8880
aI8881
aI8882
aI8883
aI8884
aI8885
aI8886
aI8887
aI8888
aI8889
aI8890
aI8891
aI8892
aI8893
aI8894
aI8895
aI8896
aI8897
aI8898
aI8899
aI8900
aI8901
aI8902
aI8903
aI8904
aI8905
aI8906
aI8907
aI8908
aI8909
aI8910
aI8911
aI8912
aI8913
aI8914
aI8915
aI8916
aI8917
aI8918
aI8919
aI8920
aI8921
aI8922
aI8923
aI8924
aI8925
aI8926
aI8927
aI8928
aI8929
aI8930
aI8931
aI8932
aI8933
aI8934
aI8935
aI8936
aI8937
aI8938
aI8939
aI8940
aI8941
aI8942
aI8943
aI8944
aI8945
aI8946
aI8947
aI8948
aI8949
aI8950
aI8951
aI8952
aI8953
aI8954
aI8955
aI8956
aI8957
aI8958
aI8959
aI8960
aI8961
aI8962
aI8963
aI8964
aI8965
aI8966
aI8967
aI8968
aI8969
aI8970
aI8971
aI8972
aI8973
aI8974
aI8975
aI8976
aI8977
aI8978
aI8979
aI8980
aI8981
aI8982
aI8983
aI8984
aI8985
aI8986
aI8987
aI8988
aI8989
aI8990
aI8991
aI8992
aI8993
aI8994
aI8995
aI8996
aI8997
aI8998
aI8999
aI9000
aI9001
aI9002
aI9003
aI9004
aI9005
aI9006
aI9007
aI9008
aI9009
aI9010
aI9011
aI9012
aI9013
aI9014
aI9015
aI9016
aI9017
aI9018
aI9019
aI9020
aI9021
aI9022
aI9023
aI9024
aI9025
aI9026
aI9027
aI9028
aI9029
aI9030
aI9031
aI9032
aI9033
aI9034
aI9035
aI9036
aI9037
aI9038
aI9039
aI9040
aI9041
aI9042
aI9043
aI9044
aI9045
aI9046
aI9047
aI9048
aI9049
aI9050
aI9051
aI9052
aI9053
aI9054
aI9055
aI9056
aI9057
aI9058
aI9059
aI9060
aI9061
aI9062
aI9063
aI9064
aI9065
aI9066
aI9067
aI9068
aI9069
aI9070
aI9071
aI9072
aI9073
aI9074
aI9075
aI9076
aI9077
aI9078
aI9079
aI9080
aI9081
aI9082
aI9083
aI9084
aI9085
aI9086
aI9087
aI9088
aI9089
aI9090
aI9091
aI9092
aI9093
aI9094
aI9095
aI9096
aI9097
aI9098
aI9099
aI9100
aI9101
aI9102
aI9103
aI9104
aI9105
aI9106
aI9107
aI9108
aI9109
aI9110
aI9111
aI9112
aI9113
aI9114
aI9115
aI9116
aI9117
aI9118
aI9119
aI9120
aI9121
aI9122
aI9123
aI9124
aI9125
aI9126
aI9127
aI9128
aI9129
aI9130
aI9131
aI9132
aI9133
aI9134
aI9135
aI9136
aI9137
aI9138
aI9139
aI9140
aI9141
aI9142
aI9143
aI9144
aI9145
aI9146
aI9147
aI9148
aI9149
aI9150
aI9151
aI9152
aI9153
aI9154
aI9155
aI9156
aI9157
aI9158
aI9159
aI9160
aI9161
aI9162
aI9163
aI9164
aI9165
aI9166
aI9167
aI9168
aI9169
aI9170
aI9171
aI9172
aI9173
aI9174
aI9175
aI9176
aI9177
aI9178
aI9179
aI9180
aI9181
aI9182
aI9183
aI9184
aI9185
aI9186
aI9187
aI9188
aI9189
aI9190
aI9191
aI9192
aI9193
aI9194
aI9195
aI9196
aI9197
aI9198
aI9199
aI9200
aI9201
aI9202
aI9203
aI9204
aI9205
aI9206
aI9207
aI9208
aI9209
aI9210
aI9211
aI9212
aI9213
aI9214
aI9215
aI9216
aI9217
aI9218
aI9219
aI9220
aI9221
aI9222
aI9223
aI9224
aI9225
aI9226
aI9227
aI9228
aI9229
aI9230
aI9231
aI9232
aI9233
aI9234
aI9235
aI9236
aI9237
aI9238
aI9239
aI9240
aI9241
aI9242
aI9243
aI9244
aI9245
aI9246
aI9247
aI9248
aI9249
aI9250
aI9251
aI9252
aI9253
aI9254
aI9255
aI9256
aI9257
aI9258
aI9259
aI9260
aI9261
aI9262
aI9263
aI9264
aI9265
aI9266
aI9267
aI9268
aI9269
aI9270
aI9271
aI9272
aI9273
aI9274
aI9275
aI9276
aI9277
aI9278
aI9279
aI9280
aI9281
aI9282
aI9283
aI9284
aI9285
aI9286
aI9287
aI9288
aI9289
aI9290
aI9291
aI9292
aI9293
aI9294
aI9295
aI9296
aI9297
aI9298
aI9299
aI9300
aI9301
aI9302
aI9303
aI9304
aI9305
aI9306
aI9307
aI9308
aI9309
aI9310
aI9311
aI9312
aI9313
aI9314
aI9315
aI9316
aI9317
aI9318
aI9319
aI9320
aI9321
aI9322
aI9323
aI9324
aI9325
aI9326
aI9327
aI9328
aI9329
aI9330
aI9331
aI9332
aI9333
aI9334
aI9335
aI9336
aI9337
aI9338
aI9339
aI9340
aI9341
aI9342
aI9343
aI9344
aI9345
aI9346
aI9347
aI9348
aI9349
aI9350
aI9351
aI9352
aI9353
aI9354
aI9355
aI9356
aI9357
aI9358
aI9359
aI9360
aI9361
aI9362
aI9363
aI9364
aI9365
aI9366
aI9367
aI9368
aI9369
aI9370
aI9371
aI9372
aI9373
aI9374
aI9375
aI9376
aI9377
aI9378
aI9379
aI9380
aI9381
aI9382
aI9383
aI9384
aI9385
aI9386
aI9387
aI9388
aI9389
aI9390
aI9391
aI9392
aI9393
aI9394
aI9395
aI9396
aI9397
aI9398
aI9399
aI9400
aI9401
aI9402
aI9403
aI9404
aI9405
aI9406
aI9407
aI9408
aI9409
aI9410
aI9411
aI9412
aI9413
aI9414
aI9415
aI9416
aI9417
aI9418
aI9419
aI9420
aI9421
aI9422
aI9423
aI9424
aI9425
aI9426
aI9427
aI9428
aI9429
aI9430
aI9431
aI9432
aI9433
aI9434
aI9435
aI9436
aI9437
aI9438
aI9439
aI9440
aI9441
aI9442
aI9443
aI9444
aI9445
aI9446
aI9447
aI9448
aI9449
aI9450
aI9451
aI9452
aI9453
aI9454
aI9455
aI9456
aI9457
aI9458
aI9459
aI9460
aI9461
aI9462
aI9463
aI9464
aI9465
aI9466
aI9467
aI9468
aI9469
aI9470
aI9471
aI9472
aI9473
aI9474
aI9475
aI9476
aI9477
aI9478
aI9479
aI9480
aI9481
aI9482
aI9483
aI9484
aI9485
aI9486
aI9487
aI9488
aI9489
aI9490
aI9491
aI9492
aI9493
aI9494
aI9495
aI9496
aI9497
aI9498
aI9499
aI9500
aI9501
aI9502
aI9503
aI9504
aI9505
aI9506
aI9507
aI9508
aI9509
aI9510
aI9511
aI9512
aI9513
aI9514
aI9515
aI9516
aI9517
aI9518
aI9519
aI9520
aI9521
aI9522
aI9523
aI9524
aI9525
aI9526
aI9527
aI9528
aI9529
aI9530
aI9531
aI9532
aI9533
aI9534
aI9535
aI9536
aI9537
aI9538
aI9539
aI9540
aI9541
aI9542
aI9543
aI9544
aI9545
aI9546
aI9547
aI9548
aI9549
aI9550
aI9551
aI9552
aI9553
aI9554
aI9555
aI9556
aI9557
aI9558
aI9559
aI9560
aI9561
aI9562
aI9563
aI9564
aI9565
aI9566
aI9567
aI9568
aI9569
aI9570
aI9571
aI9572
aI9573
aI9574
aI9575
aI9576
aI9577
aI9578
aI9579
aI9580
aI9581
aI9582
aI9583
aI9584
aI9585
aI9586
aI9587
aI9588
aI9589
aI9590
aI9591
aI9592
aI9593
aI9594
aI9595
aI9596
aI9597
aI9598
aI9599
aI9600
aI9601
aI9602
aI9603
aI9604
aI9605
aI9606
aI9607
aI9608
aI9609
aI9610
aI9611
aI9612
aI9613
aI9614
aI9615
aI9616
aI9617
aI9618
aI9619
aI9620
aI9621
aI9622
aI9623
aI9624
aI9625
aI9626
aI9627
aI9628
aI9629
aI9630
aI9631
aI9632
aI9633
aI9634
aI9635
aI9636
aI9637
aI9638
aI9639
aI9640
aI9641
aI9642
aI9643
aI9644
aI9645
aI9646
aI9647
aI9648
aI9649
aI9650
aI9651
aI9652
aI9653
aI9654
aI9655
aI9656
aI9657
aI9658
aI9659
aI9660
aI9661
aI9662
aI9663
aI9664
aI9665
aI9666
aI9667
aI9668
aI9669
aI9670
aI9671
aI9672
aI9673
aI9674
aI9675
aI9676
aI9677
aI9678
aI9679
aI9680
aI9681
aI9682
aI9683
aI9684
aI9685
aI9686
aI9687
aI9688
aI9689
aI9690
aI9691
aI9692
aI9693
aI9694
aI9695
aI9696
aI9697
aI9698
aI9699
aI9700
aI9701
aI9702
aI9703
aI9704
aI9705
aI9706
aI9707
aI9708
aI9709
aI9710
aI9711
aI9712
aI9713
aI9714
aI9715
aI9716
aI9717
aI9718
aI9719
aI9720
aI9721
aI9722
aI9723
aI9724
aI9725
aI9726
aI9727
aI9728
aI9729
aI9730
aI9731
aI9732
aI9733
aI9734
aI9735
aI9736
aI9737
aI9738
aI9739
aI9740
aI9741
aI9742
aI9743
aI9744
aI9745
aI9746
aI9747
aI9748
aI9749
aI9750
aI9751
aI9752
aI9753
aI9754
aI9755
aI9756
aI9757
aI9758
aI9759
aI9760
aI9761
aI9762
aI9763
aI9764
aI9765
aI9766
aI9767
aI9768
aI9769
aI9770
aI9771
aI9772
aI9773
aI9774
aI9775
aI9776
aI9777
aI9778
aI9779
aI9780
aI9781
aI9782
aI9783
aI9784
aI9785
aI9786
aI9787
aI9788
aI9789
aI9790
aI9791
aI9792
aI9793
aI9794
aI9795
aI9796
aI9797
aI9798
aI9799
aI9800
aI9801
aI9802
aI9803
aI9804
aI9805
aI9806
aI9807
aI9808
aI9809
aI9810
aI9811
aI9812
aI9813
aI9814
aI9815
aI9816
aI9817
aI9818
aI9819
aI9820
aI9821
aI9822
aI9823
aI9824
aI9825
aI9826
aI9827
aI9828
aI9829
aI9830
aI9831
aI9832
aI9833
aI9834
aI9835
aI9836
aI9837
aI9838
aI9839
aI9840
aI9841
aI9842
aI9843
aI9844
aI9845
aI9846
aI9847
aI9848
aI9849
aI9850
aI9851
aI9852
aI9853
aI9854
aI9855
aI9856
aI9857
aI9858
aI9859
aI9860
aI9861
aI9862
aI9863
aI9864
aI9865
aI9866
aI9867
aI9868
aI9869
aI9870
aI9871
aI9872
aI9873
aI9874
aI9875
aI9876
aI9877
aI9878
aI9879
aI9880
aI9881
aI9882
aI9883
aI9884
aI9885
aI9886
aI9887
aI9888
aI9889
aI9890
aI9891
aI9892
aI9893
aI9894
aI9895
aI9896
aI9897
aI9898
aI9899
aI9900
aI9901
aI9902
aI9903
aI9904
aI9905
aI9906
aI9907
aI9908
aI9909
aI9910
aI9911
aI9912
aI9913
aI9914
aI9915
aI9916
aI9917
aI9918
aI9919
aI9920
aI9921
aI9922
aI9923
aI9924
aI9925
aI9926
aI9927
aI9928
aI9929
aI9930
aI9931
aI9932
aI9933
aI9934
aI9935
aI9936
aI9937
aI9938
aI9939
aI9940
aI9941
aI9942
aI9943
aI9944
aI9945
aI9946
aI9947
aI9948
aI9949
aI9950
aI9951
aI9952
aI9953
aI9954
aI9955
aI9956
aI9957
aI9958
aI9959
aI9960
aI9961
aI9962
aI9963
aI9964
aI9965
aI9966
aI9967
aI9968
aI9969
aI9970
aI9971
aI9972
aI9973
aI9974
aI9975
aI9976
aI9977
aI9978
aI9979
aI9980
aI9981
aI9982
aI9983
aI9984
aI9985
aI9986
aI9987
aI9988
aI9989
aI9990
aI9991
aI9992
aI9993
aI9994
aI9995
aI9996
aI9997
aI9998
as.